
cubic.elf:     file format elf32-littleriscv


Disassembly of section .text.init:

00000000 <_start>:
   0:	00000093          	li	ra,0
   4:	00000113          	li	sp,0
   8:	00000193          	li	gp,0
   c:	00000213          	li	tp,0
  10:	00000293          	li	t0,0
  14:	00000313          	li	t1,0
  18:	00000393          	li	t2,0
  1c:	00000413          	li	s0,0
  20:	00000493          	li	s1,0
  24:	00000513          	li	a0,0
  28:	00000593          	li	a1,0
  2c:	00000613          	li	a2,0
  30:	00000693          	li	a3,0
  34:	00000713          	li	a4,0
  38:	00000793          	li	a5,0
  3c:	00000813          	li	a6,0
  40:	00000893          	li	a7,0
  44:	00000913          	li	s2,0
  48:	00000993          	li	s3,0
  4c:	00000a13          	li	s4,0
  50:	00000a93          	li	s5,0
  54:	00000b13          	li	s6,0
  58:	00000b93          	li	s7,0
  5c:	00000c13          	li	s8,0
  60:	00000c93          	li	s9,0
  64:	00000d13          	li	s10,0
  68:	00000d93          	li	s11,0
  6c:	00000e13          	li	t3,0
  70:	00000e93          	li	t4,0
  74:	00000f13          	li	t5,0
  78:	00000f93          	li	t6,0

0000007c <init_stack>:
  7c:	00020137          	lui	sp,0x20
  80:	00010113          	mv	sp,sp
  84:	6300c0ef          	jal	ra,c6b4 <main>

Disassembly of section .text:

00000088 <writeToCtrl>:
      88:	00251513          	slli	a0,a0,0x2
      8c:	110007b7          	lui	a5,0x11000
      90:	00a787b3          	add	a5,a5,a0
      94:	00b7a023          	sw	a1,0(a5) # 11000000 <soln_cnt0+0x10fef524>
      98:	00008067          	ret

0000009c <readFromCtrl>:
      9c:	00251513          	slli	a0,a0,0x2
      a0:	110007b7          	lui	a5,0x11000
      a4:	00a787b3          	add	a5,a5,a0
      a8:	0007a503          	lw	a0,0(a5) # 11000000 <soln_cnt0+0x10fef524>
      ac:	00008067          	ret

000000b0 <setIntr>:
      b0:	110007b7          	lui	a5,0x11000
      b4:	00100713          	li	a4,1
      b8:	08e7a023          	sw	a4,128(a5) # 11000080 <soln_cnt0+0x10fef5a4>
      bc:	0000006f          	j	bc <setIntr+0xc>

000000c0 <initialise_board>:
      c0:	00008067          	ret

000000c4 <start_trigger>:
      c4:	ff010113          	addi	sp,sp,-16 # 1fff0 <soln_cnt0+0xf514>
      c8:	01c00513          	li	a0,28
      cc:	00112623          	sw	ra,12(sp)
      d0:	fcdff0ef          	jal	ra,9c <readFromCtrl>
      d4:	00c12083          	lw	ra,12(sp)
      d8:	000117b7          	lui	a5,0x11
      dc:	41f55713          	srai	a4,a0,0x1f
      e0:	aca7a423          	sw	a0,-1336(a5) # 10ac8 <start_time>
      e4:	ace7a623          	sw	a4,-1332(a5)
      e8:	01010113          	addi	sp,sp,16
      ec:	00008067          	ret

000000f0 <stop_trigger>:
      f0:	ff010113          	addi	sp,sp,-16
      f4:	01d00513          	li	a0,29
      f8:	00112623          	sw	ra,12(sp)
      fc:	00812423          	sw	s0,8(sp)
     100:	f9dff0ef          	jal	ra,9c <readFromCtrl>
     104:	00050413          	mv	s0,a0
     108:	01c00513          	li	a0,28
     10c:	f91ff0ef          	jal	ra,9c <readFromCtrl>
     110:	000117b7          	lui	a5,0x11
     114:	ac87a583          	lw	a1,-1336(a5) # 10ac8 <start_time>
     118:	acc7a703          	lw	a4,-1332(a5)
     11c:	40b505b3          	sub	a1,a0,a1
     120:	00b537b3          	sltu	a5,a0,a1
     124:	40e40433          	sub	s0,s0,a4
     128:	00400513          	li	a0,4
     12c:	40f40433          	sub	s0,s0,a5
     130:	f59ff0ef          	jal	ra,88 <writeToCtrl>
     134:	00040593          	mv	a1,s0
     138:	00500513          	li	a0,5
     13c:	f4dff0ef          	jal	ra,88 <writeToCtrl>
     140:	00c12083          	lw	ra,12(sp)
     144:	00812403          	lw	s0,8(sp)
     148:	01010113          	addi	sp,sp,16
     14c:	00008067          	ret

00000150 <benchmark_body>:
     150:	db010113          	addi	sp,sp,-592
     154:	24112623          	sw	ra,588(sp)
     158:	24812423          	sw	s0,584(sp)
     15c:	24912223          	sw	s1,580(sp)
     160:	25212023          	sw	s2,576(sp)
     164:	23312e23          	sw	s3,572(sp)
     168:	23412c23          	sw	s4,568(sp)
     16c:	23512a23          	sw	s5,564(sp)
     170:	23612823          	sw	s6,560(sp)
     174:	23712623          	sw	s7,556(sp)
     178:	23812423          	sw	s8,552(sp)
     17c:	23912223          	sw	s9,548(sp)
     180:	23a12023          	sw	s10,544(sp)
     184:	21b12e23          	sw	s11,540(sp)
     188:	06a12c23          	sw	a0,120(sp)
     18c:	32a05e63          	blez	a0,4c8 <benchmark_body+0x378>
     190:	00010637          	lui	a2,0x10
     194:	7c862583          	lw	a1,1992(a2) # 107c8 <__clz_tab+0x118>
     198:	7cc62603          	lw	a2,1996(a2)
     19c:	000106b7          	lui	a3,0x10
     1a0:	02b12c23          	sw	a1,56(sp)
     1a4:	02c12e23          	sw	a2,60(sp)
     1a8:	00010637          	lui	a2,0x10
     1ac:	7d062583          	lw	a1,2000(a2) # 107d0 <__clz_tab+0x120>
     1b0:	7d462603          	lw	a2,2004(a2)
     1b4:	7c06ab03          	lw	s6,1984(a3) # 107c0 <__clz_tab+0x110>
     1b8:	04b12023          	sw	a1,64(sp)
     1bc:	04c12223          	sw	a2,68(sp)
     1c0:	00010637          	lui	a2,0x10
     1c4:	7d862583          	lw	a1,2008(a2) # 107d8 <__clz_tab+0x128>
     1c8:	7dc62603          	lw	a2,2012(a2)
     1cc:	7c46ab83          	lw	s7,1988(a3)
     1d0:	000106b7          	lui	a3,0x10
     1d4:	04c12623          	sw	a2,76(sp)
     1d8:	7e06a603          	lw	a2,2016(a3) # 107e0 <__clz_tab+0x130>
     1dc:	7e46a683          	lw	a3,2020(a3)
     1e0:	00010737          	lui	a4,0x10
     1e4:	04c12823          	sw	a2,80(sp)
     1e8:	04d12a23          	sw	a3,84(sp)
     1ec:	000106b7          	lui	a3,0x10
     1f0:	7e86a603          	lw	a2,2024(a3) # 107e8 <__clz_tab+0x138>
     1f4:	7ec6a683          	lw	a3,2028(a3)
     1f8:	04b12423          	sw	a1,72(sp)
     1fc:	04c12c23          	sw	a2,88(sp)
     200:	04d12e23          	sw	a3,92(sp)
     204:	000106b7          	lui	a3,0x10
     208:	7f06a603          	lw	a2,2032(a3) # 107f0 <__clz_tab+0x140>
     20c:	7f46a683          	lw	a3,2036(a3)
     210:	000107b7          	lui	a5,0x10
     214:	06c12023          	sw	a2,96(sp)
     218:	06d12223          	sw	a3,100(sp)
     21c:	000106b7          	lui	a3,0x10
     220:	7f86a603          	lw	a2,2040(a3) # 107f8 <__clz_tab+0x148>
     224:	7fc6a683          	lw	a3,2044(a3)
     228:	00000a93          	li	s5,0
     22c:	06c12423          	sw	a2,104(sp)
     230:	06d12623          	sw	a3,108(sp)
     234:	000116b7          	lui	a3,0x11
     238:	8006a603          	lw	a2,-2048(a3) # 10800 <__clz_tab+0x150>
     23c:	8046a683          	lw	a3,-2044(a3)
     240:	09010913          	addi	s2,sp,144
     244:	06c12823          	sw	a2,112(sp)
     248:	06d12a23          	sw	a3,116(sp)
     24c:	7b872683          	lw	a3,1976(a4) # 107b8 <__clz_tab+0x108>
     250:	7bc72703          	lw	a4,1980(a4)
     254:	08c10c93          	addi	s9,sp,140
     258:	02d12623          	sw	a3,44(sp)
     25c:	02e12823          	sw	a4,48(sp)
     260:	7b07a703          	lw	a4,1968(a5) # 107b0 <__clz_tab+0x100>
     264:	7b47a783          	lw	a5,1972(a5)
     268:	03512a23          	sw	s5,52(sp)
     26c:	02e12023          	sw	a4,32(sp)
     270:	02f12223          	sw	a5,36(sp)
     274:	000117b7          	lui	a5,0x11
     278:	ab078793          	addi	a5,a5,-1360 # 10ab0 <res0>
     27c:	06f12e23          	sw	a5,124(sp)
     280:	18000613          	li	a2,384
     284:	00000593          	li	a1,0
     288:	00090513          	mv	a0,s2
     28c:	34c0c0ef          	jal	ra,c5d8 <memset>
     290:	03812403          	lw	s0,56(sp)
     294:	03c12483          	lw	s1,60(sp)
     298:	04012703          	lw	a4,64(sp)
     29c:	04412783          	lw	a5,68(sp)
     2a0:	04812603          	lw	a2,72(sp)
     2a4:	04c12683          	lw	a3,76(sp)
     2a8:	000b0513          	mv	a0,s6
     2ac:	000b8593          	mv	a1,s7
     2b0:	00040813          	mv	a6,s0
     2b4:	00048893          	mv	a7,s1
     2b8:	01212223          	sw	s2,4(sp)
     2bc:	01912023          	sw	s9,0(sp)
     2c0:	400000ef          	jal	ra,6c0 <SolveCubic>
     2c4:	08c12303          	lw	t1,140(sp)
     2c8:	00011e37          	lui	t3,0x11
     2cc:	01212223          	sw	s2,4(sp)
     2d0:	ac6e2e23          	sw	t1,-1316(t3) # 10adc <soln_cnt0>
     2d4:	07c12e03          	lw	t3,124(sp)
     2d8:	09012303          	lw	t1,144(sp)
     2dc:	01912023          	sw	s9,0(sp)
     2e0:	05012703          	lw	a4,80(sp)
     2e4:	006e2023          	sw	t1,0(t3)
     2e8:	09412303          	lw	t1,148(sp)
     2ec:	05412783          	lw	a5,84(sp)
     2f0:	05812603          	lw	a2,88(sp)
     2f4:	006e2223          	sw	t1,4(t3)
     2f8:	09812303          	lw	t1,152(sp)
     2fc:	05c12683          	lw	a3,92(sp)
     300:	000b0513          	mv	a0,s6
     304:	006e2423          	sw	t1,8(t3)
     308:	09c12303          	lw	t1,156(sp)
     30c:	000b8593          	mv	a1,s7
     310:	00040813          	mv	a6,s0
     314:	006e2623          	sw	t1,12(t3)
     318:	0a012303          	lw	t1,160(sp)
     31c:	00048893          	mv	a7,s1
     320:	000b0a13          	mv	s4,s6
     324:	006e2823          	sw	t1,16(t3)
     328:	0a412303          	lw	t1,164(sp)
     32c:	000b8993          	mv	s3,s7
     330:	006e2a23          	sw	t1,20(t3)
     334:	38c000ef          	jal	ra,6c0 <SolveCubic>
     338:	08c12303          	lw	t1,140(sp)
     33c:	00011e37          	lui	t3,0x11
     340:	09412383          	lw	t2,148(sp)
     344:	ac6e2c23          	sw	t1,-1320(t3) # 10ad8 <soln_cnt1>
     348:	06012803          	lw	a6,96(sp)
     34c:	09012303          	lw	t1,144(sp)
     350:	06412883          	lw	a7,100(sp)
     354:	06812703          	lw	a4,104(sp)
     358:	06c12783          	lw	a5,108(sp)
     35c:	07012603          	lw	a2,112(sp)
     360:	07412683          	lw	a3,116(sp)
     364:	00011e37          	lui	t3,0x11
     368:	000b0513          	mv	a0,s6
     36c:	000b8593          	mv	a1,s7
     370:	01212223          	sw	s2,4(sp)
     374:	01912023          	sw	s9,0(sp)
     378:	ac6e2823          	sw	t1,-1328(t3) # 10ad0 <res1>
     37c:	ac7e2a23          	sw	t2,-1324(t3)
     380:	340000ef          	jal	ra,6c0 <SolveCubic>
     384:	000117b7          	lui	a5,0x11
     388:	8087a803          	lw	a6,-2040(a5) # 10808 <__clz_tab+0x158>
     38c:	80c7a883          	lw	a7,-2036(a5)
     390:	000117b7          	lui	a5,0x11
     394:	8107a603          	lw	a2,-2032(a5) # 10810 <__clz_tab+0x160>
     398:	8147a683          	lw	a3,-2028(a5)
     39c:	000b0713          	mv	a4,s6
     3a0:	000b8793          	mv	a5,s7
     3a4:	000b0513          	mv	a0,s6
     3a8:	000b8593          	mv	a1,s7
     3ac:	01212223          	sw	s2,4(sp)
     3b0:	01912023          	sw	s9,0(sp)
     3b4:	30c000ef          	jal	ra,6c0 <SolveCubic>
     3b8:	00200793          	li	a5,2
     3bc:	02f12423          	sw	a5,40(sp)
     3c0:	01612e23          	sw	s6,28(sp)
     3c4:	02c12483          	lw	s1,44(sp)
     3c8:	03012403          	lw	s0,48(sp)
     3cc:	00200d13          	li	s10,2
     3d0:	00100c13          	li	s8,1
     3d4:	02012d83          	lw	s11,32(sp)
     3d8:	02412b03          	lw	s6,36(sp)
     3dc:	00200a93          	li	s5,2
     3e0:	00011837          	lui	a6,0x11
     3e4:	81c82883          	lw	a7,-2020(a6) # 1081c <__clz_tab+0x16c>
     3e8:	81882803          	lw	a6,-2024(a6)
     3ec:	000d8713          	mv	a4,s11
     3f0:	000b0793          	mv	a5,s6
     3f4:	00048613          	mv	a2,s1
     3f8:	000a0513          	mv	a0,s4
     3fc:	00040693          	mv	a3,s0
     400:	00098593          	mv	a1,s3
     404:	01212223          	sw	s2,4(sp)
     408:	01912023          	sw	s9,0(sp)
     40c:	2b4000ef          	jal	ra,6c0 <SolveCubic>
     410:	00011837          	lui	a6,0x11
     414:	82482883          	lw	a7,-2012(a6) # 10824 <__clz_tab+0x174>
     418:	82082803          	lw	a6,-2016(a6)
     41c:	000d8713          	mv	a4,s11
     420:	000b0793          	mv	a5,s6
     424:	00048613          	mv	a2,s1
     428:	000a0513          	mv	a0,s4
     42c:	00040693          	mv	a3,s0
     430:	00098593          	mv	a1,s3
     434:	01212223          	sw	s2,4(sp)
     438:	01912023          	sw	s9,0(sp)
     43c:	284000ef          	jal	ra,6c0 <SolveCubic>
     440:	000117b7          	lui	a5,0x11
     444:	8287a603          	lw	a2,-2008(a5) # 10828 <__clz_tab+0x178>
     448:	82c7a683          	lw	a3,-2004(a5)
     44c:	000d8513          	mv	a0,s11
     450:	000b0593          	mv	a1,s6
     454:	309040ef          	jal	ra,4f5c <__adddf3>
     458:	00050d93          	mv	s11,a0
     45c:	00058b13          	mv	s6,a1
     460:	018a8663          	beq	s5,s8,46c <benchmark_body+0x31c>
     464:	00100a93          	li	s5,1
     468:	f79ff06f          	j	3e0 <benchmark_body+0x290>
     46c:	01c12b03          	lw	s6,28(sp)
     470:	00048513          	mv	a0,s1
     474:	00040593          	mv	a1,s0
     478:	000b0613          	mv	a2,s6
     47c:	000b8693          	mv	a3,s7
     480:	3b8060ef          	jal	ra,6838 <__subdf3>
     484:	00050493          	mv	s1,a0
     488:	00058413          	mv	s0,a1
     48c:	075d1e63          	bne	s10,s5,508 <benchmark_body+0x3b8>
     490:	000a0513          	mv	a0,s4
     494:	00098593          	mv	a1,s3
     498:	000b0613          	mv	a2,s6
     49c:	000b8693          	mv	a3,s7
     4a0:	2bd040ef          	jal	ra,4f5c <__adddf3>
     4a4:	02812783          	lw	a5,40(sp)
     4a8:	00050a13          	mv	s4,a0
     4ac:	00058993          	mv	s3,a1
     4b0:	07a79063          	bne	a5,s10,510 <benchmark_body+0x3c0>
     4b4:	03412783          	lw	a5,52(sp)
     4b8:	07812703          	lw	a4,120(sp)
     4bc:	00178793          	addi	a5,a5,1
     4c0:	02f12a23          	sw	a5,52(sp)
     4c4:	daf71ee3          	bne	a4,a5,280 <benchmark_body+0x130>
     4c8:	24c12083          	lw	ra,588(sp)
     4cc:	24812403          	lw	s0,584(sp)
     4d0:	24412483          	lw	s1,580(sp)
     4d4:	24012903          	lw	s2,576(sp)
     4d8:	23c12983          	lw	s3,572(sp)
     4dc:	23812a03          	lw	s4,568(sp)
     4e0:	23412a83          	lw	s5,564(sp)
     4e4:	23012b03          	lw	s6,560(sp)
     4e8:	22c12b83          	lw	s7,556(sp)
     4ec:	22812c03          	lw	s8,552(sp)
     4f0:	22412c83          	lw	s9,548(sp)
     4f4:	22012d03          	lw	s10,544(sp)
     4f8:	21c12d83          	lw	s11,540(sp)
     4fc:	00000513          	li	a0,0
     500:	25010113          	addi	sp,sp,592
     504:	00008067          	ret
     508:	00100d13          	li	s10,1
     50c:	ec9ff06f          	j	3d4 <benchmark_body+0x284>
     510:	00100793          	li	a5,1
     514:	02f12423          	sw	a5,40(sp)
     518:	eadff06f          	j	3c4 <benchmark_body+0x274>

0000051c <verify_benchmark>:
     51c:	000117b7          	lui	a5,0x11
     520:	adc7a703          	lw	a4,-1316(a5) # 10adc <soln_cnt0>
     524:	fe010113          	addi	sp,sp,-32
     528:	00812c23          	sw	s0,24(sp)
     52c:	00112e23          	sw	ra,28(sp)
     530:	00912a23          	sw	s1,20(sp)
     534:	01212823          	sw	s2,16(sp)
     538:	01312623          	sw	s3,12(sp)
     53c:	01412423          	sw	s4,8(sp)
     540:	01512223          	sw	s5,4(sp)
     544:	00300793          	li	a5,3
     548:	00000413          	li	s0,0
     54c:	02f70663          	beq	a4,a5,578 <verify_benchmark+0x5c>
     550:	01c12083          	lw	ra,28(sp)
     554:	00040513          	mv	a0,s0
     558:	01812403          	lw	s0,24(sp)
     55c:	01412483          	lw	s1,20(sp)
     560:	01012903          	lw	s2,16(sp)
     564:	00c12983          	lw	s3,12(sp)
     568:	00812a03          	lw	s4,8(sp)
     56c:	00412a83          	lw	s5,4(sp)
     570:	02010113          	addi	sp,sp,32
     574:	00008067          	ret
     578:	00011937          	lui	s2,0x11
     57c:	000117b7          	lui	a5,0x11
     580:	ab090913          	addi	s2,s2,-1360 # 10ab0 <res0>
     584:	00092603          	lw	a2,0(s2)
     588:	00492683          	lw	a3,4(s2)
     58c:	8307a503          	lw	a0,-2000(a5) # 10830 <__clz_tab+0x180>
     590:	8347a583          	lw	a1,-1996(a5)
     594:	800004b7          	lui	s1,0x80000
     598:	fff4c493          	not	s1,s1
     59c:	29c060ef          	jal	ra,6838 <__subdf3>
     5a0:	000117b7          	lui	a5,0x11
     5a4:	8387aa03          	lw	s4,-1992(a5) # 10838 <__clz_tab+0x188>
     5a8:	83c7aa83          	lw	s5,-1988(a5)
     5ac:	00050713          	mv	a4,a0
     5b0:	0095f7b3          	and	a5,a1,s1
     5b4:	00070513          	mv	a0,a4
     5b8:	00078593          	mv	a1,a5
     5bc:	000a0613          	mv	a2,s4
     5c0:	000a8693          	mv	a3,s5
     5c4:	2c5050ef          	jal	ra,6088 <__ledf2>
     5c8:	f80554e3          	bgez	a0,550 <verify_benchmark+0x34>
     5cc:	000117b7          	lui	a5,0x11
     5d0:	00892603          	lw	a2,8(s2)
     5d4:	00c92683          	lw	a3,12(s2)
     5d8:	8407a503          	lw	a0,-1984(a5) # 10840 <__clz_tab+0x190>
     5dc:	8447a583          	lw	a1,-1980(a5)
     5e0:	258060ef          	jal	ra,6838 <__subdf3>
     5e4:	00050713          	mv	a4,a0
     5e8:	0095f7b3          	and	a5,a1,s1
     5ec:	000a0613          	mv	a2,s4
     5f0:	000a8693          	mv	a3,s5
     5f4:	00070513          	mv	a0,a4
     5f8:	00078593          	mv	a1,a5
     5fc:	28d050ef          	jal	ra,6088 <__ledf2>
     600:	f40558e3          	bgez	a0,550 <verify_benchmark+0x34>
     604:	000119b7          	lui	s3,0x11
     608:	01092603          	lw	a2,16(s2)
     60c:	01492683          	lw	a3,20(s2)
     610:	8489a503          	lw	a0,-1976(s3) # 10848 <__clz_tab+0x198>
     614:	84c9a583          	lw	a1,-1972(s3)
     618:	220060ef          	jal	ra,6838 <__subdf3>
     61c:	00050713          	mv	a4,a0
     620:	0095f7b3          	and	a5,a1,s1
     624:	000a0613          	mv	a2,s4
     628:	000a8693          	mv	a3,s5
     62c:	00070513          	mv	a0,a4
     630:	00078593          	mv	a1,a5
     634:	255050ef          	jal	ra,6088 <__ledf2>
     638:	f0055ce3          	bgez	a0,550 <verify_benchmark+0x34>
     63c:	000117b7          	lui	a5,0x11
     640:	ad87a703          	lw	a4,-1320(a5) # 10ad8 <soln_cnt1>
     644:	00100793          	li	a5,1
     648:	f0f714e3          	bne	a4,a5,550 <verify_benchmark+0x34>
     64c:	000117b7          	lui	a5,0x11
     650:	ad07a603          	lw	a2,-1328(a5) # 10ad0 <res1>
     654:	ad47a683          	lw	a3,-1324(a5)
     658:	8489a503          	lw	a0,-1976(s3)
     65c:	84c9a583          	lw	a1,-1972(s3)
     660:	1d8060ef          	jal	ra,6838 <__subdf3>
     664:	00050713          	mv	a4,a0
     668:	0095f7b3          	and	a5,a1,s1
     66c:	000a0613          	mv	a2,s4
     670:	000a8693          	mv	a3,s5
     674:	00070513          	mv	a0,a4
     678:	00078593          	mv	a1,a5
     67c:	20d050ef          	jal	ra,6088 <__ledf2>
     680:	00052413          	slti	s0,a0,0
     684:	ecdff06f          	j	550 <verify_benchmark+0x34>

00000688 <initialise_benchmark>:
     688:	00008067          	ret

0000068c <warm_caches>:
     68c:	ff010113          	addi	sp,sp,-16
     690:	00112623          	sw	ra,12(sp)
     694:	abdff0ef          	jal	ra,150 <benchmark_body>
     698:	00c12083          	lw	ra,12(sp)
     69c:	01010113          	addi	sp,sp,16
     6a0:	00008067          	ret

000006a4 <benchmark>:
     6a4:	ff010113          	addi	sp,sp,-16
     6a8:	1f400513          	li	a0,500
     6ac:	00112623          	sw	ra,12(sp)
     6b0:	aa1ff0ef          	jal	ra,150 <benchmark_body>
     6b4:	00c12083          	lw	ra,12(sp)
     6b8:	01010113          	addi	sp,sp,16
     6bc:	00008067          	ret

000006c0 <SolveCubic>:
     6c0:	ed010113          	addi	sp,sp,-304
     6c4:	11612823          	sw	s6,272(sp)
     6c8:	11712623          	sw	s7,268(sp)
     6cc:	00058b13          	mv	s6,a1
     6d0:	00050b93          	mv	s7,a0
     6d4:	00068593          	mv	a1,a3
     6d8:	00060513          	mv	a0,a2
     6dc:	000b0693          	mv	a3,s6
     6e0:	000b8613          	mv	a2,s7
     6e4:	12112623          	sw	ra,300(sp)
     6e8:	03012223          	sw	a6,36(sp)
     6ec:	03112023          	sw	a7,32(sp)
     6f0:	12812423          	sw	s0,296(sp)
     6f4:	12912223          	sw	s1,292(sp)
     6f8:	00078413          	mv	s0,a5
     6fc:	00070493          	mv	s1,a4
     700:	13212023          	sw	s2,288(sp)
     704:	11312e23          	sw	s3,284(sp)
     708:	11412c23          	sw	s4,280(sp)
     70c:	11512a23          	sw	s5,276(sp)
     710:	11812423          	sw	s8,264(sp)
     714:	11912223          	sw	s9,260(sp)
     718:	11a12023          	sw	s10,256(sp)
     71c:	0fb12e23          	sw	s11,252(sp)
     720:	018050ef          	jal	ra,5738 <__divdf3>
     724:	00058793          	mv	a5,a1
     728:	00078613          	mv	a2,a5
     72c:	02a12423          	sw	a0,40(sp)
     730:	02b12623          	sw	a1,44(sp)
     734:	00050593          	mv	a1,a0
     738:	0e010513          	addi	a0,sp,224
     73c:	0290b0ef          	jal	ra,bf64 <__extenddftf2>
     740:	000b0693          	mv	a3,s6
     744:	000b8613          	mv	a2,s7
     748:	00048513          	mv	a0,s1
     74c:	00040593          	mv	a1,s0
     750:	7e9040ef          	jal	ra,5738 <__divdf3>
     754:	0e012483          	lw	s1,224(sp)
     758:	0e412403          	lw	s0,228(sp)
     75c:	0e812d83          	lw	s11,232(sp)
     760:	0ec12c83          	lw	s9,236(sp)
     764:	00058613          	mv	a2,a1
     768:	00050593          	mv	a1,a0
     76c:	0e010513          	addi	a0,sp,224
     770:	7f40b0ef          	jal	ra,bf64 <__extenddftf2>
     774:	0c010613          	addi	a2,sp,192
     778:	0d010593          	addi	a1,sp,208
     77c:	0e010513          	addi	a0,sp,224
     780:	0e012a83          	lw	s5,224(sp)
     784:	0e412a03          	lw	s4,228(sp)
     788:	0e812983          	lw	s3,232(sp)
     78c:	0ec12903          	lw	s2,236(sp)
     790:	0c912823          	sw	s1,208(sp)
     794:	0c812a23          	sw	s0,212(sp)
     798:	0db12c23          	sw	s11,216(sp)
     79c:	0d912e23          	sw	s9,220(sp)
     7a0:	0c912023          	sw	s1,192(sp)
     7a4:	0c812223          	sw	s0,196(sp)
     7a8:	0db12423          	sw	s11,200(sp)
     7ac:	0d912623          	sw	s9,204(sp)
     7b0:	6d5080ef          	jal	ra,9684 <__multf3>
     7b4:	400087b7          	lui	a5,0x40008
     7b8:	0e012703          	lw	a4,224(sp)
     7bc:	0af12e23          	sw	a5,188(sp)
     7c0:	0e412783          	lw	a5,228(sp)
     7c4:	0b010613          	addi	a2,sp,176
     7c8:	0c010593          	addi	a1,sp,192
     7cc:	0d010513          	addi	a0,sp,208
     7d0:	0e812c03          	lw	s8,232(sp)
     7d4:	0ec12d03          	lw	s10,236(sp)
     7d8:	0d512023          	sw	s5,192(sp)
     7dc:	0d412223          	sw	s4,196(sp)
     7e0:	0d312423          	sw	s3,200(sp)
     7e4:	0d212623          	sw	s2,204(sp)
     7e8:	00e12623          	sw	a4,12(sp)
     7ec:	00f12423          	sw	a5,8(sp)
     7f0:	0a012823          	sw	zero,176(sp)
     7f4:	0a012a23          	sw	zero,180(sp)
     7f8:	0a012c23          	sw	zero,184(sp)
     7fc:	689080ef          	jal	ra,9684 <__multf3>
     800:	00812783          	lw	a5,8(sp)
     804:	00c12703          	lw	a4,12(sp)
     808:	0a010613          	addi	a2,sp,160
     80c:	0af12a23          	sw	a5,180(sp)
     810:	0d012783          	lw	a5,208(sp)
     814:	0b010593          	addi	a1,sp,176
     818:	0c010513          	addi	a0,sp,192
     81c:	0af12023          	sw	a5,160(sp)
     820:	0d412783          	lw	a5,212(sp)
     824:	0ae12823          	sw	a4,176(sp)
     828:	0b812c23          	sw	s8,184(sp)
     82c:	0af12223          	sw	a5,164(sp)
     830:	0d812783          	lw	a5,216(sp)
     834:	0ba12e23          	sw	s10,188(sp)
     838:	40022d37          	lui	s10,0x40022
     83c:	0af12423          	sw	a5,168(sp)
     840:	0dc12783          	lw	a5,220(sp)
     844:	0af12623          	sw	a5,172(sp)
     848:	2000a0ef          	jal	ra,aa48 <__subtf3>
     84c:	0c012783          	lw	a5,192(sp)
     850:	09010613          	addi	a2,sp,144
     854:	0a010593          	addi	a1,sp,160
     858:	0af12023          	sw	a5,160(sp)
     85c:	0c412783          	lw	a5,196(sp)
     860:	0b010513          	addi	a0,sp,176
     864:	09a12e23          	sw	s10,156(sp)
     868:	0af12223          	sw	a5,164(sp)
     86c:	0c812783          	lw	a5,200(sp)
     870:	08012823          	sw	zero,144(sp)
     874:	08012a23          	sw	zero,148(sp)
     878:	0af12423          	sw	a5,168(sp)
     87c:	0cc12783          	lw	a5,204(sp)
     880:	08012c23          	sw	zero,152(sp)
     884:	0af12623          	sw	a5,172(sp)
     888:	605070ef          	jal	ra,868c <__divtf3>
     88c:	0b812683          	lw	a3,184(sp)
     890:	0b412703          	lw	a4,180(sp)
     894:	0b012783          	lw	a5,176(sp)
     898:	0c010613          	addi	a2,sp,192
     89c:	0d010593          	addi	a1,sp,208
     8a0:	0e010513          	addi	a0,sp,224
     8a4:	00d12823          	sw	a3,16(sp)
     8a8:	0bc12c03          	lw	s8,188(sp)
     8ac:	00e12623          	sw	a4,12(sp)
     8b0:	00f12423          	sw	a5,8(sp)
     8b4:	0c912823          	sw	s1,208(sp)
     8b8:	0c812a23          	sw	s0,212(sp)
     8bc:	0db12c23          	sw	s11,216(sp)
     8c0:	0d912e23          	sw	s9,220(sp)
     8c4:	0c912023          	sw	s1,192(sp)
     8c8:	0c812223          	sw	s0,196(sp)
     8cc:	0db12423          	sw	s11,200(sp)
     8d0:	0d912623          	sw	s9,204(sp)
     8d4:	0c9060ef          	jal	ra,719c <__addtf3>
     8d8:	0e012783          	lw	a5,224(sp)
     8dc:	0b010613          	addi	a2,sp,176
     8e0:	0c010593          	addi	a1,sp,192
     8e4:	0cf12023          	sw	a5,192(sp)
     8e8:	0e412783          	lw	a5,228(sp)
     8ec:	0d010513          	addi	a0,sp,208
     8f0:	0a912823          	sw	s1,176(sp)
     8f4:	0cf12223          	sw	a5,196(sp)
     8f8:	0e812783          	lw	a5,232(sp)
     8fc:	0a812a23          	sw	s0,180(sp)
     900:	0bb12c23          	sw	s11,184(sp)
     904:	0cf12423          	sw	a5,200(sp)
     908:	0ec12783          	lw	a5,236(sp)
     90c:	0b912e23          	sw	s9,188(sp)
     910:	0cf12623          	sw	a5,204(sp)
     914:	571080ef          	jal	ra,9684 <__multf3>
     918:	0d012783          	lw	a5,208(sp)
     91c:	0a010613          	addi	a2,sp,160
     920:	0b010593          	addi	a1,sp,176
     924:	0af12823          	sw	a5,176(sp)
     928:	0d412783          	lw	a5,212(sp)
     92c:	0c010513          	addi	a0,sp,192
     930:	0a912023          	sw	s1,160(sp)
     934:	0af12a23          	sw	a5,180(sp)
     938:	0d812783          	lw	a5,216(sp)
     93c:	0a812223          	sw	s0,164(sp)
     940:	0bb12423          	sw	s11,168(sp)
     944:	0af12c23          	sw	a5,184(sp)
     948:	0dc12783          	lw	a5,220(sp)
     94c:	0b912623          	sw	s9,172(sp)
     950:	0af12e23          	sw	a5,188(sp)
     954:	531080ef          	jal	ra,9684 <__multf3>
     958:	0c012703          	lw	a4,192(sp)
     95c:	0c412783          	lw	a5,196(sp)
     960:	0c812303          	lw	t1,200(sp)
     964:	09010613          	addi	a2,sp,144
     968:	0a010593          	addi	a1,sp,160
     96c:	0b010513          	addi	a0,sp,176
     970:	00e12e23          	sw	a4,28(sp)
     974:	00f12c23          	sw	a5,24(sp)
     978:	00612a23          	sw	t1,20(sp)
     97c:	09a12e23          	sw	s10,156(sp)
     980:	0a912023          	sw	s1,160(sp)
     984:	0cc12d03          	lw	s10,204(sp)
     988:	0a812223          	sw	s0,164(sp)
     98c:	0bb12423          	sw	s11,168(sp)
     990:	0b912623          	sw	s9,172(sp)
     994:	08012823          	sw	zero,144(sp)
     998:	08012a23          	sw	zero,148(sp)
     99c:	08012c23          	sw	zero,152(sp)
     9a0:	4e5080ef          	jal	ra,9684 <__multf3>
     9a4:	0b012683          	lw	a3,176(sp)
     9a8:	08010613          	addi	a2,sp,128
     9ac:	09010593          	addi	a1,sp,144
     9b0:	08d12823          	sw	a3,144(sp)
     9b4:	0b412683          	lw	a3,180(sp)
     9b8:	0a010513          	addi	a0,sp,160
     9bc:	09512023          	sw	s5,128(sp)
     9c0:	08d12a23          	sw	a3,148(sp)
     9c4:	0b812683          	lw	a3,184(sp)
     9c8:	09412223          	sw	s4,132(sp)
     9cc:	09312423          	sw	s3,136(sp)
     9d0:	08d12c23          	sw	a3,152(sp)
     9d4:	0bc12683          	lw	a3,188(sp)
     9d8:	09212623          	sw	s2,140(sp)
     9dc:	08d12e23          	sw	a3,156(sp)
     9e0:	4a5080ef          	jal	ra,9684 <__multf3>
     9e4:	01812783          	lw	a5,24(sp)
     9e8:	01412303          	lw	t1,20(sp)
     9ec:	01c12703          	lw	a4,28(sp)
     9f0:	08f12223          	sw	a5,132(sp)
     9f4:	0a012783          	lw	a5,160(sp)
     9f8:	07010613          	addi	a2,sp,112
     9fc:	08010593          	addi	a1,sp,128
     a00:	06f12823          	sw	a5,112(sp)
     a04:	0a412783          	lw	a5,164(sp)
     a08:	09010513          	addi	a0,sp,144
     a0c:	08612423          	sw	t1,136(sp)
     a10:	06f12a23          	sw	a5,116(sp)
     a14:	0a812783          	lw	a5,168(sp)
     a18:	08e12023          	sw	a4,128(sp)
     a1c:	09a12623          	sw	s10,140(sp)
     a20:	06f12c23          	sw	a5,120(sp)
     a24:	0ac12783          	lw	a5,172(sp)
     a28:	06f12e23          	sw	a5,124(sp)
     a2c:	01c0a0ef          	jal	ra,aa48 <__subtf3>
     a30:	02412803          	lw	a6,36(sp)
     a34:	02012883          	lw	a7,32(sp)
     a38:	000b0693          	mv	a3,s6
     a3c:	00080513          	mv	a0,a6
     a40:	00088593          	mv	a1,a7
     a44:	000b8613          	mv	a2,s7
     a48:	4f1040ef          	jal	ra,5738 <__divdf3>
     a4c:	00058613          	mv	a2,a1
     a50:	00050593          	mv	a1,a0
     a54:	08010513          	addi	a0,sp,128
     a58:	09012a83          	lw	s5,144(sp)
     a5c:	09412a03          	lw	s4,148(sp)
     a60:	09812983          	lw	s3,152(sp)
     a64:	09c12903          	lw	s2,156(sp)
     a68:	4fc0b0ef          	jal	ra,bf64 <__extenddftf2>
     a6c:	08012783          	lw	a5,128(sp)
     a70:	05010613          	addi	a2,sp,80
     a74:	06010593          	addi	a1,sp,96
     a78:	06f12023          	sw	a5,96(sp)
     a7c:	08412783          	lw	a5,132(sp)
     a80:	07010513          	addi	a0,sp,112
     a84:	04012823          	sw	zero,80(sp)
     a88:	06f12223          	sw	a5,100(sp)
     a8c:	08812783          	lw	a5,136(sp)
     a90:	04012a23          	sw	zero,84(sp)
     a94:	04012c23          	sw	zero,88(sp)
     a98:	06f12423          	sw	a5,104(sp)
     a9c:	08c12783          	lw	a5,140(sp)
     aa0:	06f12623          	sw	a5,108(sp)
     aa4:	4003b7b7          	lui	a5,0x4003b
     aa8:	04f12e23          	sw	a5,92(sp)
     aac:	3d9080ef          	jal	ra,9684 <__multf3>
     ab0:	07012783          	lw	a5,112(sp)
     ab4:	04010613          	addi	a2,sp,64
     ab8:	05010593          	addi	a1,sp,80
     abc:	04f12023          	sw	a5,64(sp)
     ac0:	07412783          	lw	a5,116(sp)
     ac4:	06010513          	addi	a0,sp,96
     ac8:	05512823          	sw	s5,80(sp)
     acc:	04f12223          	sw	a5,68(sp)
     ad0:	07812783          	lw	a5,120(sp)
     ad4:	05412a23          	sw	s4,84(sp)
     ad8:	05312c23          	sw	s3,88(sp)
     adc:	04f12423          	sw	a5,72(sp)
     ae0:	07c12783          	lw	a5,124(sp)
     ae4:	05212e23          	sw	s2,92(sp)
     ae8:	04f12623          	sw	a5,76(sp)
     aec:	6b0060ef          	jal	ra,719c <__addtf3>
     af0:	06012783          	lw	a5,96(sp)
     af4:	03010613          	addi	a2,sp,48
     af8:	04010593          	addi	a1,sp,64
     afc:	04f12023          	sw	a5,64(sp)
     b00:	06412783          	lw	a5,100(sp)
     b04:	05010513          	addi	a0,sp,80
     b08:	02012823          	sw	zero,48(sp)
     b0c:	04f12223          	sw	a5,68(sp)
     b10:	06812783          	lw	a5,104(sp)
     b14:	02012a23          	sw	zero,52(sp)
     b18:	02012c23          	sw	zero,56(sp)
     b1c:	04f12423          	sw	a5,72(sp)
     b20:	06c12783          	lw	a5,108(sp)
     b24:	04f12623          	sw	a5,76(sp)
     b28:	4004b7b7          	lui	a5,0x4004b
     b2c:	02f12e23          	sw	a5,60(sp)
     b30:	35d070ef          	jal	ra,868c <__divtf3>
     b34:	00812b03          	lw	s6,8(sp)
     b38:	00c12b83          	lw	s7,12(sp)
     b3c:	01012d03          	lw	s10,16(sp)
     b40:	0c010613          	addi	a2,sp,192
     b44:	0d010593          	addi	a1,sp,208
     b48:	0e010513          	addi	a0,sp,224
     b4c:	05012a83          	lw	s5,80(sp)
     b50:	05412a03          	lw	s4,84(sp)
     b54:	05812983          	lw	s3,88(sp)
     b58:	05c12903          	lw	s2,92(sp)
     b5c:	0d612823          	sw	s6,208(sp)
     b60:	0d712a23          	sw	s7,212(sp)
     b64:	0da12c23          	sw	s10,216(sp)
     b68:	0d612023          	sw	s6,192(sp)
     b6c:	0d712223          	sw	s7,196(sp)
     b70:	0da12423          	sw	s10,200(sp)
     b74:	0d812e23          	sw	s8,220(sp)
     b78:	0d812623          	sw	s8,204(sp)
     b7c:	309080ef          	jal	ra,9684 <__multf3>
     b80:	0e012783          	lw	a5,224(sp)
     b84:	0b010613          	addi	a2,sp,176
     b88:	0c010593          	addi	a1,sp,192
     b8c:	0cf12023          	sw	a5,192(sp)
     b90:	0e412783          	lw	a5,228(sp)
     b94:	0d010513          	addi	a0,sp,208
     b98:	01612423          	sw	s6,8(sp)
     b9c:	0cf12223          	sw	a5,196(sp)
     ba0:	0e812783          	lw	a5,232(sp)
     ba4:	0b612823          	sw	s6,176(sp)
     ba8:	01712623          	sw	s7,12(sp)
     bac:	0cf12423          	sw	a5,200(sp)
     bb0:	0ec12783          	lw	a5,236(sp)
     bb4:	0b712a23          	sw	s7,180(sp)
     bb8:	01a12823          	sw	s10,16(sp)
     bbc:	0cf12623          	sw	a5,204(sp)
     bc0:	0ba12c23          	sw	s10,184(sp)
     bc4:	0b812e23          	sw	s8,188(sp)
     bc8:	2bd080ef          	jal	ra,9684 <__multf3>
     bcc:	0d012703          	lw	a4,208(sp)
     bd0:	0c010613          	addi	a2,sp,192
     bd4:	0d010593          	addi	a1,sp,208
     bd8:	0e010513          	addi	a0,sp,224
     bdc:	0d412d03          	lw	s10,212(sp)
     be0:	0d812b83          	lw	s7,216(sp)
     be4:	0dc12b03          	lw	s6,220(sp)
     be8:	00e12a23          	sw	a4,20(sp)
     bec:	0d512823          	sw	s5,208(sp)
     bf0:	0d412a23          	sw	s4,212(sp)
     bf4:	0d312c23          	sw	s3,216(sp)
     bf8:	0d212e23          	sw	s2,220(sp)
     bfc:	0d512023          	sw	s5,192(sp)
     c00:	0d412223          	sw	s4,196(sp)
     c04:	0d312423          	sw	s3,200(sp)
     c08:	0d212623          	sw	s2,204(sp)
     c0c:	279080ef          	jal	ra,9684 <__multf3>
     c10:	0e012783          	lw	a5,224(sp)
     c14:	01412703          	lw	a4,20(sp)
     c18:	0b010613          	addi	a2,sp,176
     c1c:	0cf12023          	sw	a5,192(sp)
     c20:	0e412783          	lw	a5,228(sp)
     c24:	0c010593          	addi	a1,sp,192
     c28:	0d010513          	addi	a0,sp,208
     c2c:	0cf12223          	sw	a5,196(sp)
     c30:	0e812783          	lw	a5,232(sp)
     c34:	0ae12823          	sw	a4,176(sp)
     c38:	0ba12a23          	sw	s10,180(sp)
     c3c:	0cf12423          	sw	a5,200(sp)
     c40:	0ec12783          	lw	a5,236(sp)
     c44:	0b712c23          	sw	s7,184(sp)
     c48:	0b612e23          	sw	s6,188(sp)
     c4c:	0cf12623          	sw	a5,204(sp)
     c50:	5f9090ef          	jal	ra,aa48 <__subtf3>
     c54:	0d012783          	lw	a5,208(sp)
     c58:	0c010513          	addi	a0,sp,192
     c5c:	0cf12023          	sw	a5,192(sp)
     c60:	0d412783          	lw	a5,212(sp)
     c64:	0cf12223          	sw	a5,196(sp)
     c68:	0d812783          	lw	a5,216(sp)
     c6c:	0cf12423          	sw	a5,200(sp)
     c70:	0dc12783          	lw	a5,220(sp)
     c74:	0cf12623          	sw	a5,204(sp)
     c78:	4e40b0ef          	jal	ra,c15c <__trunctfdf2>
     c7c:	00000613          	li	a2,0
     c80:	00000693          	li	a3,0
     c84:	00a12c23          	sw	a0,24(sp)
     c88:	00b12e23          	sw	a1,28(sp)
     c8c:	3fc050ef          	jal	ra,6088 <__ledf2>
     c90:	16a05663          	blez	a0,dfc <SolveCubic+0x73c>
     c94:	13012703          	lw	a4,304(sp)
     c98:	01812503          	lw	a0,24(sp)
     c9c:	01c12583          	lw	a1,28(sp)
     ca0:	00100793          	li	a5,1
     ca4:	00f72023          	sw	a5,0(a4)
     ca8:	035000ef          	jal	ra,14dc <sqrt>
     cac:	00050b93          	mv	s7,a0
     cb0:	0e010513          	addi	a0,sp,224
     cb4:	00058493          	mv	s1,a1
     cb8:	0f312423          	sw	s3,232(sp)
     cbc:	0f212623          	sw	s2,236(sp)
     cc0:	0f512023          	sw	s5,224(sp)
     cc4:	0f412223          	sw	s4,228(sp)
     cc8:	80000437          	lui	s0,0x80000
     ccc:	4900b0ef          	jal	ra,c15c <__trunctfdf2>
     cd0:	fff44793          	not	a5,s0
     cd4:	00050713          	mv	a4,a0
     cd8:	00f5f7b3          	and	a5,a1,a5
     cdc:	00070513          	mv	a0,a4
     ce0:	00048693          	mv	a3,s1
     ce4:	00078593          	mv	a1,a5
     ce8:	000b8613          	mv	a2,s7
     cec:	270040ef          	jal	ra,4f5c <__adddf3>
     cf0:	00011b37          	lui	s6,0x11
     cf4:	868b2603          	lw	a2,-1944(s6) # 10868 <__clz_tab+0x1b8>
     cf8:	86cb2683          	lw	a3,-1940(s6)
     cfc:	63c000ef          	jal	ra,1338 <pow>
     d00:	00812783          	lw	a5,8(sp)
     d04:	00050b13          	mv	s6,a0
     d08:	0e010513          	addi	a0,sp,224
     d0c:	0ef12023          	sw	a5,224(sp)
     d10:	00c12783          	lw	a5,12(sp)
     d14:	00058493          	mv	s1,a1
     d18:	0f812623          	sw	s8,236(sp)
     d1c:	0ef12223          	sw	a5,228(sp)
     d20:	01012783          	lw	a5,16(sp)
     d24:	0ef12423          	sw	a5,232(sp)
     d28:	4340b0ef          	jal	ra,c15c <__trunctfdf2>
     d2c:	00048693          	mv	a3,s1
     d30:	000b0613          	mv	a2,s6
     d34:	205040ef          	jal	ra,5738 <__divdf3>
     d38:	00048693          	mv	a3,s1
     d3c:	000b0613          	mv	a2,s6
     d40:	21c040ef          	jal	ra,4f5c <__adddf3>
     d44:	00058793          	mv	a5,a1
     d48:	00050493          	mv	s1,a0
     d4c:	0d010593          	addi	a1,sp,208
     d50:	0e010513          	addi	a0,sp,224
     d54:	0f312423          	sw	s3,232(sp)
     d58:	0f212623          	sw	s2,236(sp)
     d5c:	00078993          	mv	s3,a5
     d60:	0f512023          	sw	s5,224(sp)
     d64:	0f412223          	sw	s4,228(sp)
     d68:	0c012823          	sw	zero,208(sp)
     d6c:	0c012a23          	sw	zero,212(sp)
     d70:	0c012c23          	sw	zero,216(sp)
     d74:	0c012e23          	sw	zero,220(sp)
     d78:	7c8080ef          	jal	ra,9540 <__letf2>
     d7c:	00098913          	mv	s2,s3
     d80:	00054463          	bltz	a0,d88 <SolveCubic+0x6c8>
     d84:	01344933          	xor	s2,s0,s3
     d88:	000117b7          	lui	a5,0x11
     d8c:	8507a603          	lw	a2,-1968(a5) # 10850 <__clz_tab+0x1a0>
     d90:	8547a683          	lw	a3,-1964(a5)
     d94:	02812503          	lw	a0,40(sp)
     d98:	02c12583          	lw	a1,44(sp)
     d9c:	19d040ef          	jal	ra,5738 <__divdf3>
     da0:	00050613          	mv	a2,a0
     da4:	00058693          	mv	a3,a1
     da8:	00048513          	mv	a0,s1
     dac:	00090593          	mv	a1,s2
     db0:	289050ef          	jal	ra,6838 <__subdf3>
     db4:	13412783          	lw	a5,308(sp)
     db8:	00a7a023          	sw	a0,0(a5)
     dbc:	00b7a223          	sw	a1,4(a5)
     dc0:	12c12083          	lw	ra,300(sp)
     dc4:	12812403          	lw	s0,296(sp)
     dc8:	12412483          	lw	s1,292(sp)
     dcc:	12012903          	lw	s2,288(sp)
     dd0:	11c12983          	lw	s3,284(sp)
     dd4:	11812a03          	lw	s4,280(sp)
     dd8:	11412a83          	lw	s5,276(sp)
     ddc:	11012b03          	lw	s6,272(sp)
     de0:	10c12b83          	lw	s7,268(sp)
     de4:	10812c03          	lw	s8,264(sp)
     de8:	10412c83          	lw	s9,260(sp)
     dec:	10012d03          	lw	s10,256(sp)
     df0:	0fc12d83          	lw	s11,252(sp)
     df4:	13010113          	addi	sp,sp,304
     df8:	00008067          	ret
     dfc:	13012603          	lw	a2,304(sp)
     e00:	01412703          	lw	a4,20(sp)
     e04:	00300793          	li	a5,3
     e08:	00f62023          	sw	a5,0(a2)
     e0c:	0e010513          	addi	a0,sp,224
     e10:	0ee12023          	sw	a4,224(sp)
     e14:	0fa12223          	sw	s10,228(sp)
     e18:	0f712423          	sw	s7,232(sp)
     e1c:	0f612623          	sw	s6,236(sp)
     e20:	33c0b0ef          	jal	ra,c15c <__trunctfdf2>
     e24:	6b8000ef          	jal	ra,14dc <sqrt>
     e28:	00050793          	mv	a5,a0
     e2c:	0e010513          	addi	a0,sp,224
     e30:	0f512023          	sw	s5,224(sp)
     e34:	0f412223          	sw	s4,228(sp)
     e38:	0f312423          	sw	s3,232(sp)
     e3c:	0f212623          	sw	s2,236(sp)
     e40:	00078993          	mv	s3,a5
     e44:	00058913          	mv	s2,a1
     e48:	3140b0ef          	jal	ra,c15c <__trunctfdf2>
     e4c:	00098613          	mv	a2,s3
     e50:	00090693          	mv	a3,s2
     e54:	0e5040ef          	jal	ra,5738 <__divdf3>
     e58:	434000ef          	jal	ra,128c <acos>
     e5c:	00812b03          	lw	s6,8(sp)
     e60:	00c12b83          	lw	s7,12(sp)
     e64:	01012d03          	lw	s10,16(sp)
     e68:	00050993          	mv	s3,a0
     e6c:	0e010513          	addi	a0,sp,224
     e70:	00058913          	mv	s2,a1
     e74:	0f612023          	sw	s6,224(sp)
     e78:	0f712223          	sw	s7,228(sp)
     e7c:	0fa12423          	sw	s10,232(sp)
     e80:	0f812623          	sw	s8,236(sp)
     e84:	2d80b0ef          	jal	ra,c15c <__trunctfdf2>
     e88:	00011b37          	lui	s6,0x11
     e8c:	00050a93          	mv	s5,a0
     e90:	00058a13          	mv	s4,a1
     e94:	648000ef          	jal	ra,14dc <sqrt>
     e98:	850b2603          	lw	a2,-1968(s6) # 10850 <__clz_tab+0x1a0>
     e9c:	854b2683          	lw	a3,-1964(s6)
     ea0:	00050c13          	mv	s8,a0
     ea4:	00058b93          	mv	s7,a1
     ea8:	00098513          	mv	a0,s3
     eac:	00090593          	mv	a1,s2
     eb0:	089040ef          	jal	ra,5738 <__divdf3>
     eb4:	2e4000ef          	jal	ra,1198 <cos>
     eb8:	00050713          	mv	a4,a0
     ebc:	00058793          	mv	a5,a1
     ec0:	400086b7          	lui	a3,0x40008
     ec4:	0c010613          	addi	a2,sp,192
     ec8:	0d010593          	addi	a1,sp,208
     ecc:	0e010513          	addi	a0,sp,224
     ed0:	0c912823          	sw	s1,208(sp)
     ed4:	0c812a23          	sw	s0,212(sp)
     ed8:	00070493          	mv	s1,a4
     edc:	00078413          	mv	s0,a5
     ee0:	0db12c23          	sw	s11,216(sp)
     ee4:	0d912e23          	sw	s9,220(sp)
     ee8:	0cd12623          	sw	a3,204(sp)
     eec:	00011cb7          	lui	s9,0x11
     ef0:	0c012023          	sw	zero,192(sp)
     ef4:	0c012223          	sw	zero,196(sp)
     ef8:	0c012423          	sw	zero,200(sp)
     efc:	790070ef          	jal	ra,868c <__divtf3>
     f00:	820ca603          	lw	a2,-2016(s9) # 10820 <__clz_tab+0x170>
     f04:	824ca683          	lw	a3,-2012(s9)
     f08:	000c0513          	mv	a0,s8
     f0c:	000b8593          	mv	a1,s7
     f10:	25c050ef          	jal	ra,616c <__muldf3>
     f14:	00040693          	mv	a3,s0
     f18:	00048613          	mv	a2,s1
     f1c:	250050ef          	jal	ra,616c <__muldf3>
     f20:	00058613          	mv	a2,a1
     f24:	00050593          	mv	a1,a0
     f28:	0e010513          	addi	a0,sp,224
     f2c:	0e012c03          	lw	s8,224(sp)
     f30:	0e412b83          	lw	s7,228(sp)
     f34:	0e812483          	lw	s1,232(sp)
     f38:	0ec12403          	lw	s0,236(sp)
     f3c:	0280b0ef          	jal	ra,bf64 <__extenddftf2>
     f40:	0e012783          	lw	a5,224(sp)
     f44:	0b010613          	addi	a2,sp,176
     f48:	0c010593          	addi	a1,sp,192
     f4c:	0cf12023          	sw	a5,192(sp)
     f50:	0e412783          	lw	a5,228(sp)
     f54:	0d010513          	addi	a0,sp,208
     f58:	0b812823          	sw	s8,176(sp)
     f5c:	0cf12223          	sw	a5,196(sp)
     f60:	0e812783          	lw	a5,232(sp)
     f64:	0b712a23          	sw	s7,180(sp)
     f68:	0a912c23          	sw	s1,184(sp)
     f6c:	0cf12423          	sw	a5,200(sp)
     f70:	0ec12783          	lw	a5,236(sp)
     f74:	0a812e23          	sw	s0,188(sp)
     f78:	0cf12623          	sw	a5,204(sp)
     f7c:	2cd090ef          	jal	ra,aa48 <__subtf3>
     f80:	0d012783          	lw	a5,208(sp)
     f84:	0c010513          	addi	a0,sp,192
     f88:	0cf12023          	sw	a5,192(sp)
     f8c:	0d412783          	lw	a5,212(sp)
     f90:	0cf12223          	sw	a5,196(sp)
     f94:	0d812783          	lw	a5,216(sp)
     f98:	0cf12423          	sw	a5,200(sp)
     f9c:	0dc12783          	lw	a5,220(sp)
     fa0:	0cf12623          	sw	a5,204(sp)
     fa4:	1b80b0ef          	jal	ra,c15c <__trunctfdf2>
     fa8:	13412683          	lw	a3,308(sp)
     fac:	00a6a023          	sw	a0,0(a3) # 40008000 <soln_cnt0+0x3fff7524>
     fb0:	00b6a223          	sw	a1,4(a3)
     fb4:	000a8513          	mv	a0,s5
     fb8:	000a0593          	mv	a1,s4
     fbc:	520000ef          	jal	ra,14dc <sqrt>
     fc0:	000116b7          	lui	a3,0x11
     fc4:	8586a603          	lw	a2,-1960(a3) # 10858 <__clz_tab+0x1a8>
     fc8:	85c6a683          	lw	a3,-1956(a3)
     fcc:	00050713          	mv	a4,a0
     fd0:	00058793          	mv	a5,a1
     fd4:	00098513          	mv	a0,s3
     fd8:	00090593          	mv	a1,s2
     fdc:	00e12623          	sw	a4,12(sp)
     fe0:	00f12423          	sw	a5,8(sp)
     fe4:	779030ef          	jal	ra,4f5c <__adddf3>
     fe8:	850b2603          	lw	a2,-1968(s6)
     fec:	854b2683          	lw	a3,-1964(s6)
     ff0:	748040ef          	jal	ra,5738 <__divdf3>
     ff4:	1a4000ef          	jal	ra,1198 <cos>
     ff8:	00c12703          	lw	a4,12(sp)
     ffc:	00812783          	lw	a5,8(sp)
    1000:	820ca603          	lw	a2,-2016(s9)
    1004:	824ca683          	lw	a3,-2012(s9)
    1008:	00050d93          	mv	s11,a0
    100c:	00058d13          	mv	s10,a1
    1010:	00070513          	mv	a0,a4
    1014:	00078593          	mv	a1,a5
    1018:	154050ef          	jal	ra,616c <__muldf3>
    101c:	000d0693          	mv	a3,s10
    1020:	000d8613          	mv	a2,s11
    1024:	148050ef          	jal	ra,616c <__muldf3>
    1028:	00058613          	mv	a2,a1
    102c:	00050593          	mv	a1,a0
    1030:	0e010513          	addi	a0,sp,224
    1034:	7310a0ef          	jal	ra,bf64 <__extenddftf2>
    1038:	0e012783          	lw	a5,224(sp)
    103c:	0b010613          	addi	a2,sp,176
    1040:	0c010593          	addi	a1,sp,192
    1044:	0cf12023          	sw	a5,192(sp)
    1048:	0e412783          	lw	a5,228(sp)
    104c:	0d010513          	addi	a0,sp,208
    1050:	0b812823          	sw	s8,176(sp)
    1054:	0cf12223          	sw	a5,196(sp)
    1058:	0e812783          	lw	a5,232(sp)
    105c:	0b712a23          	sw	s7,180(sp)
    1060:	0a912c23          	sw	s1,184(sp)
    1064:	0cf12423          	sw	a5,200(sp)
    1068:	0ec12783          	lw	a5,236(sp)
    106c:	0a812e23          	sw	s0,188(sp)
    1070:	0cf12623          	sw	a5,204(sp)
    1074:	1d5090ef          	jal	ra,aa48 <__subtf3>
    1078:	0d012783          	lw	a5,208(sp)
    107c:	0c010513          	addi	a0,sp,192
    1080:	0cf12023          	sw	a5,192(sp)
    1084:	0d412783          	lw	a5,212(sp)
    1088:	0cf12223          	sw	a5,196(sp)
    108c:	0d812783          	lw	a5,216(sp)
    1090:	0cf12423          	sw	a5,200(sp)
    1094:	0dc12783          	lw	a5,220(sp)
    1098:	0cf12623          	sw	a5,204(sp)
    109c:	0c00b0ef          	jal	ra,c15c <__trunctfdf2>
    10a0:	13412683          	lw	a3,308(sp)
    10a4:	00a6a423          	sw	a0,8(a3)
    10a8:	00b6a623          	sw	a1,12(a3)
    10ac:	000a8513          	mv	a0,s5
    10b0:	000a0593          	mv	a1,s4
    10b4:	428000ef          	jal	ra,14dc <sqrt>
    10b8:	000117b7          	lui	a5,0x11
    10bc:	8607a603          	lw	a2,-1952(a5) # 10860 <__clz_tab+0x1b0>
    10c0:	8647a683          	lw	a3,-1948(a5)
    10c4:	00050a93          	mv	s5,a0
    10c8:	00058a13          	mv	s4,a1
    10cc:	00098513          	mv	a0,s3
    10d0:	00090593          	mv	a1,s2
    10d4:	689030ef          	jal	ra,4f5c <__adddf3>
    10d8:	850b2603          	lw	a2,-1968(s6)
    10dc:	854b2683          	lw	a3,-1964(s6)
    10e0:	658040ef          	jal	ra,5738 <__divdf3>
    10e4:	0b4000ef          	jal	ra,1198 <cos>
    10e8:	820ca603          	lw	a2,-2016(s9)
    10ec:	824ca683          	lw	a3,-2012(s9)
    10f0:	00050993          	mv	s3,a0
    10f4:	00058913          	mv	s2,a1
    10f8:	000a8513          	mv	a0,s5
    10fc:	000a0593          	mv	a1,s4
    1100:	06c050ef          	jal	ra,616c <__muldf3>
    1104:	00090693          	mv	a3,s2
    1108:	00098613          	mv	a2,s3
    110c:	060050ef          	jal	ra,616c <__muldf3>
    1110:	00058613          	mv	a2,a1
    1114:	00050593          	mv	a1,a0
    1118:	0e010513          	addi	a0,sp,224
    111c:	6490a0ef          	jal	ra,bf64 <__extenddftf2>
    1120:	0e012783          	lw	a5,224(sp)
    1124:	0b010613          	addi	a2,sp,176
    1128:	0c010593          	addi	a1,sp,192
    112c:	0cf12023          	sw	a5,192(sp)
    1130:	0e412783          	lw	a5,228(sp)
    1134:	0d010513          	addi	a0,sp,208
    1138:	0b812823          	sw	s8,176(sp)
    113c:	0cf12223          	sw	a5,196(sp)
    1140:	0e812783          	lw	a5,232(sp)
    1144:	0b712a23          	sw	s7,180(sp)
    1148:	0a912c23          	sw	s1,184(sp)
    114c:	0cf12423          	sw	a5,200(sp)
    1150:	0ec12783          	lw	a5,236(sp)
    1154:	0a812e23          	sw	s0,188(sp)
    1158:	0cf12623          	sw	a5,204(sp)
    115c:	0ed090ef          	jal	ra,aa48 <__subtf3>
    1160:	0d012783          	lw	a5,208(sp)
    1164:	0c010513          	addi	a0,sp,192
    1168:	0cf12023          	sw	a5,192(sp)
    116c:	0d412783          	lw	a5,212(sp)
    1170:	0cf12223          	sw	a5,196(sp)
    1174:	0d812783          	lw	a5,216(sp)
    1178:	0cf12423          	sw	a5,200(sp)
    117c:	0dc12783          	lw	a5,220(sp)
    1180:	0cf12623          	sw	a5,204(sp)
    1184:	7d90a0ef          	jal	ra,c15c <__trunctfdf2>
    1188:	13412783          	lw	a5,308(sp)
    118c:	00a7a823          	sw	a0,16(a5)
    1190:	00b7aa23          	sw	a1,20(a5)
    1194:	c2dff06f          	j	dc0 <SolveCubic+0x700>

00001198 <cos>:
    1198:	fe010113          	addi	sp,sp,-32
    119c:	00112e23          	sw	ra,28(sp)
    11a0:	00159793          	slli	a5,a1,0x1
    11a4:	0017d793          	srli	a5,a5,0x1
    11a8:	3fe926b7          	lui	a3,0x3fe92
    11ac:	1fb68693          	addi	a3,a3,507 # 3fe921fb <soln_cnt0+0x3fe8171f>
    11b0:	02f6da63          	bge	a3,a5,11e4 <cos+0x4c>
    11b4:	7ff006b7          	lui	a3,0x7ff00
    11b8:	02d7ce63          	blt	a5,a3,11f4 <cos+0x5c>
    11bc:	00050613          	mv	a2,a0
    11c0:	00058693          	mv	a3,a1
    11c4:	674050ef          	jal	ra,6838 <__subdf3>
    11c8:	00050713          	mv	a4,a0
    11cc:	00058793          	mv	a5,a1
    11d0:	00070513          	mv	a0,a4
    11d4:	00078593          	mv	a1,a5
    11d8:	01c12083          	lw	ra,28(sp)
    11dc:	02010113          	addi	sp,sp,32
    11e0:	00008067          	ret
    11e4:	00000613          	li	a2,0
    11e8:	00000693          	li	a3,0
    11ec:	32c020ef          	jal	ra,3518 <__kernel_cos>
    11f0:	fd9ff06f          	j	11c8 <cos+0x30>
    11f4:	00010613          	mv	a2,sp
    11f8:	219010ef          	jal	ra,2c10 <__ieee754_rem_pio2>
    11fc:	00357513          	andi	a0,a0,3
    1200:	00100793          	li	a5,1
    1204:	04f50263          	beq	a0,a5,1248 <cos+0xb0>
    1208:	00200793          	li	a5,2
    120c:	06f50063          	beq	a0,a5,126c <cos+0xd4>
    1210:	02050063          	beqz	a0,1230 <cos+0x98>
    1214:	00100713          	li	a4,1
    1218:	00812603          	lw	a2,8(sp)
    121c:	00c12683          	lw	a3,12(sp)
    1220:	00012503          	lw	a0,0(sp)
    1224:	00412583          	lw	a1,4(sp)
    1228:	3bc030ef          	jal	ra,45e4 <__kernel_sin>
    122c:	f9dff06f          	j	11c8 <cos+0x30>
    1230:	00812603          	lw	a2,8(sp)
    1234:	00c12683          	lw	a3,12(sp)
    1238:	00012503          	lw	a0,0(sp)
    123c:	00412583          	lw	a1,4(sp)
    1240:	2d8020ef          	jal	ra,3518 <__kernel_cos>
    1244:	f85ff06f          	j	11c8 <cos+0x30>
    1248:	00100713          	li	a4,1
    124c:	00812603          	lw	a2,8(sp)
    1250:	00c12683          	lw	a3,12(sp)
    1254:	00012503          	lw	a0,0(sp)
    1258:	00412583          	lw	a1,4(sp)
    125c:	388030ef          	jal	ra,45e4 <__kernel_sin>
    1260:	800007b7          	lui	a5,0x80000
    1264:	00b7c5b3          	xor	a1,a5,a1
    1268:	f61ff06f          	j	11c8 <cos+0x30>
    126c:	00812603          	lw	a2,8(sp)
    1270:	00c12683          	lw	a3,12(sp)
    1274:	00012503          	lw	a0,0(sp)
    1278:	00412583          	lw	a1,4(sp)
    127c:	29c020ef          	jal	ra,3518 <__kernel_cos>
    1280:	800007b7          	lui	a5,0x80000
    1284:	00b7c5b3          	xor	a1,a5,a1
    1288:	f41ff06f          	j	11c8 <cos+0x30>

0000128c <acos>:
    128c:	fe010113          	addi	sp,sp,-32
    1290:	00112e23          	sw	ra,28(sp)
    1294:	00812c23          	sw	s0,24(sp)
    1298:	00912a23          	sw	s1,20(sp)
    129c:	01212823          	sw	s2,16(sp)
    12a0:	01312623          	sw	s3,12(sp)
    12a4:	00050493          	mv	s1,a0
    12a8:	00058413          	mv	s0,a1
    12ac:	2dc000ef          	jal	ra,1588 <__ieee754_acos>
    12b0:	00050993          	mv	s3,a0
    12b4:	00058913          	mv	s2,a1
    12b8:	00048613          	mv	a2,s1
    12bc:	00040693          	mv	a3,s0
    12c0:	00048513          	mv	a0,s1
    12c4:	00040593          	mv	a1,s0
    12c8:	561050ef          	jal	ra,7028 <__unorddf2>
    12cc:	02051263          	bnez	a0,12f0 <acos+0x64>
    12d0:	00048513          	mv	a0,s1
    12d4:	00040593          	mv	a1,s0
    12d8:	071030ef          	jal	ra,4b48 <fabs>
    12dc:	000107b7          	lui	a5,0x10
    12e0:	7c07a603          	lw	a2,1984(a5) # 107c0 <__clz_tab+0x110>
    12e4:	7c47a683          	lw	a3,1988(a5)
    12e8:	4bd040ef          	jal	ra,5fa4 <__gedf2>
    12ec:	02a04463          	bgtz	a0,1314 <acos+0x88>
    12f0:	00098513          	mv	a0,s3
    12f4:	00090593          	mv	a1,s2
    12f8:	01c12083          	lw	ra,28(sp)
    12fc:	01812403          	lw	s0,24(sp)
    1300:	01412483          	lw	s1,20(sp)
    1304:	01012903          	lw	s2,16(sp)
    1308:	00c12983          	lw	s3,12(sp)
    130c:	02010113          	addi	sp,sp,32
    1310:	00008067          	ret
    1314:	2b80b0ef          	jal	ra,c5cc <__errno>
    1318:	02100793          	li	a5,33
    131c:	00f52023          	sw	a5,0(a0)
    1320:	00011537          	lui	a0,0x11
    1324:	aa850513          	addi	a0,a0,-1368 # 10aa8 <__clz_tab+0x3f8>
    1328:	239030ef          	jal	ra,4d60 <nan>
    132c:	00050993          	mv	s3,a0
    1330:	00058913          	mv	s2,a1
    1334:	fbdff06f          	j	12f0 <acos+0x64>

00001338 <pow>:
    1338:	fe010113          	addi	sp,sp,-32
    133c:	00112e23          	sw	ra,28(sp)
    1340:	00812c23          	sw	s0,24(sp)
    1344:	00912a23          	sw	s1,20(sp)
    1348:	01212823          	sw	s2,16(sp)
    134c:	01312623          	sw	s3,12(sp)
    1350:	01412423          	sw	s4,8(sp)
    1354:	01512223          	sw	s5,4(sp)
    1358:	00050a93          	mv	s5,a0
    135c:	00058a13          	mv	s4,a1
    1360:	00060493          	mv	s1,a2
    1364:	00068413          	mv	s0,a3
    1368:	0a9000ef          	jal	ra,1c10 <__ieee754_pow>
    136c:	00050993          	mv	s3,a0
    1370:	00058913          	mv	s2,a1
    1374:	00048613          	mv	a2,s1
    1378:	00040693          	mv	a3,s0
    137c:	00048513          	mv	a0,s1
    1380:	00040593          	mv	a1,s0
    1384:	4a5050ef          	jal	ra,7028 <__unorddf2>
    1388:	04051063          	bnez	a0,13c8 <pow+0x90>
    138c:	00000613          	li	a2,0
    1390:	00000693          	li	a3,0
    1394:	000a8513          	mv	a0,s5
    1398:	000a0593          	mv	a1,s4
    139c:	37d040ef          	jal	ra,5f18 <__eqdf2>
    13a0:	08051663          	bnez	a0,142c <pow+0xf4>
    13a4:	00000613          	li	a2,0
    13a8:	00000693          	li	a3,0
    13ac:	00048513          	mv	a0,s1
    13b0:	00040593          	mv	a1,s0
    13b4:	365040ef          	jal	ra,5f18 <__eqdf2>
    13b8:	02051e63          	bnez	a0,13f4 <pow+0xbc>
    13bc:	000107b7          	lui	a5,0x10
    13c0:	7c07a983          	lw	s3,1984(a5) # 107c0 <__clz_tab+0x110>
    13c4:	7c47a903          	lw	s2,1988(a5)
    13c8:	00098513          	mv	a0,s3
    13cc:	00090593          	mv	a1,s2
    13d0:	01c12083          	lw	ra,28(sp)
    13d4:	01812403          	lw	s0,24(sp)
    13d8:	01412483          	lw	s1,20(sp)
    13dc:	01012903          	lw	s2,16(sp)
    13e0:	00c12983          	lw	s3,12(sp)
    13e4:	00812a03          	lw	s4,8(sp)
    13e8:	00412a83          	lw	s5,4(sp)
    13ec:	02010113          	addi	sp,sp,32
    13f0:	00008067          	ret
    13f4:	00048513          	mv	a0,s1
    13f8:	00040593          	mv	a1,s0
    13fc:	764030ef          	jal	ra,4b60 <finite>
    1400:	fc0504e3          	beqz	a0,13c8 <pow+0x90>
    1404:	00000613          	li	a2,0
    1408:	00000693          	li	a3,0
    140c:	00048513          	mv	a0,s1
    1410:	00040593          	mv	a1,s0
    1414:	475040ef          	jal	ra,6088 <__ledf2>
    1418:	fa0558e3          	bgez	a0,13c8 <pow+0x90>
    141c:	1b00b0ef          	jal	ra,c5cc <__errno>
    1420:	02200793          	li	a5,34
    1424:	00f52023          	sw	a5,0(a0)
    1428:	fa1ff06f          	j	13c8 <pow+0x90>
    142c:	00098513          	mv	a0,s3
    1430:	00090593          	mv	a1,s2
    1434:	72c030ef          	jal	ra,4b60 <finite>
    1438:	04050663          	beqz	a0,1484 <pow+0x14c>
    143c:	00000613          	li	a2,0
    1440:	00000693          	li	a3,0
    1444:	00098513          	mv	a0,s3
    1448:	00090593          	mv	a1,s2
    144c:	2cd040ef          	jal	ra,5f18 <__eqdf2>
    1450:	f6051ce3          	bnez	a0,13c8 <pow+0x90>
    1454:	000a8513          	mv	a0,s5
    1458:	000a0593          	mv	a1,s4
    145c:	704030ef          	jal	ra,4b60 <finite>
    1460:	f60504e3          	beqz	a0,13c8 <pow+0x90>
    1464:	00048513          	mv	a0,s1
    1468:	00040593          	mv	a1,s0
    146c:	6f4030ef          	jal	ra,4b60 <finite>
    1470:	f4050ce3          	beqz	a0,13c8 <pow+0x90>
    1474:	1580b0ef          	jal	ra,c5cc <__errno>
    1478:	02200793          	li	a5,34
    147c:	00f52023          	sw	a5,0(a0)
    1480:	f49ff06f          	j	13c8 <pow+0x90>
    1484:	000a8513          	mv	a0,s5
    1488:	000a0593          	mv	a1,s4
    148c:	6d4030ef          	jal	ra,4b60 <finite>
    1490:	fa0506e3          	beqz	a0,143c <pow+0x104>
    1494:	00048513          	mv	a0,s1
    1498:	00040593          	mv	a1,s0
    149c:	6c4030ef          	jal	ra,4b60 <finite>
    14a0:	f8050ee3          	beqz	a0,143c <pow+0x104>
    14a4:	00098613          	mv	a2,s3
    14a8:	00090693          	mv	a3,s2
    14ac:	00098513          	mv	a0,s3
    14b0:	00090593          	mv	a1,s2
    14b4:	375050ef          	jal	ra,7028 <__unorddf2>
    14b8:	00051a63          	bnez	a0,14cc <pow+0x194>
    14bc:	1100b0ef          	jal	ra,c5cc <__errno>
    14c0:	02200793          	li	a5,34
    14c4:	00f52023          	sw	a5,0(a0)
    14c8:	f01ff06f          	j	13c8 <pow+0x90>
    14cc:	1000b0ef          	jal	ra,c5cc <__errno>
    14d0:	02100793          	li	a5,33
    14d4:	00f52023          	sw	a5,0(a0)
    14d8:	ef1ff06f          	j	13c8 <pow+0x90>

000014dc <sqrt>:
    14dc:	fe010113          	addi	sp,sp,-32
    14e0:	00112e23          	sw	ra,28(sp)
    14e4:	00812c23          	sw	s0,24(sp)
    14e8:	00912a23          	sw	s1,20(sp)
    14ec:	01212823          	sw	s2,16(sp)
    14f0:	01312623          	sw	s3,12(sp)
    14f4:	00050493          	mv	s1,a0
    14f8:	00058413          	mv	s0,a1
    14fc:	599010ef          	jal	ra,3294 <__ieee754_sqrt>
    1500:	00050993          	mv	s3,a0
    1504:	00058913          	mv	s2,a1
    1508:	00048613          	mv	a2,s1
    150c:	00040693          	mv	a3,s0
    1510:	00048513          	mv	a0,s1
    1514:	00040593          	mv	a1,s0
    1518:	311050ef          	jal	ra,7028 <__unorddf2>
    151c:	00051e63          	bnez	a0,1538 <sqrt+0x5c>
    1520:	00000613          	li	a2,0
    1524:	00000693          	li	a3,0
    1528:	00048513          	mv	a0,s1
    152c:	00040593          	mv	a1,s0
    1530:	359040ef          	jal	ra,6088 <__ledf2>
    1534:	02054463          	bltz	a0,155c <sqrt+0x80>
    1538:	00098513          	mv	a0,s3
    153c:	00090593          	mv	a1,s2
    1540:	01c12083          	lw	ra,28(sp)
    1544:	01812403          	lw	s0,24(sp)
    1548:	01412483          	lw	s1,20(sp)
    154c:	01012903          	lw	s2,16(sp)
    1550:	00c12983          	lw	s3,12(sp)
    1554:	02010113          	addi	sp,sp,32
    1558:	00008067          	ret
    155c:	0700b0ef          	jal	ra,c5cc <__errno>
    1560:	02100793          	li	a5,33
    1564:	00f52023          	sw	a5,0(a0)
    1568:	00000613          	li	a2,0
    156c:	00000693          	li	a3,0
    1570:	00060513          	mv	a0,a2
    1574:	00068593          	mv	a1,a3
    1578:	1c0040ef          	jal	ra,5738 <__divdf3>
    157c:	00050993          	mv	s3,a0
    1580:	00058913          	mv	s2,a1
    1584:	fb5ff06f          	j	1538 <sqrt+0x5c>

00001588 <__ieee754_acos>:
    1588:	fd010113          	addi	sp,sp,-48
    158c:	02112623          	sw	ra,44(sp)
    1590:	02812423          	sw	s0,40(sp)
    1594:	02912223          	sw	s1,36(sp)
    1598:	03212023          	sw	s2,32(sp)
    159c:	01312e23          	sw	s3,28(sp)
    15a0:	01412c23          	sw	s4,24(sp)
    15a4:	01512a23          	sw	s5,20(sp)
    15a8:	01612823          	sw	s6,16(sp)
    15ac:	01712623          	sw	s7,12(sp)
    15b0:	01812423          	sw	s8,8(sp)
    15b4:	00050493          	mv	s1,a0
    15b8:	00058413          	mv	s0,a1
    15bc:	00159793          	slli	a5,a1,0x1
    15c0:	0017d793          	srli	a5,a5,0x1
    15c4:	3ff00737          	lui	a4,0x3ff00
    15c8:	08e7c863          	blt	a5,a4,1658 <__ieee754_acos+0xd0>
    15cc:	c0100737          	lui	a4,0xc0100
    15d0:	00e787b3          	add	a5,a5,a4
    15d4:	00a7e7b3          	or	a5,a5,a0
    15d8:	04079a63          	bnez	a5,162c <__ieee754_acos+0xa4>
    15dc:	00000713          	li	a4,0
    15e0:	02b05e63          	blez	a1,161c <__ieee754_acos+0x94>
    15e4:	00070513          	mv	a0,a4
    15e8:	00078593          	mv	a1,a5
    15ec:	02c12083          	lw	ra,44(sp)
    15f0:	02812403          	lw	s0,40(sp)
    15f4:	02412483          	lw	s1,36(sp)
    15f8:	02012903          	lw	s2,32(sp)
    15fc:	01c12983          	lw	s3,28(sp)
    1600:	01812a03          	lw	s4,24(sp)
    1604:	01412a83          	lw	s5,20(sp)
    1608:	01012b03          	lw	s6,16(sp)
    160c:	00c12b83          	lw	s7,12(sp)
    1610:	00812c03          	lw	s8,8(sp)
    1614:	03010113          	addi	sp,sp,48
    1618:	00008067          	ret
    161c:	000117b7          	lui	a5,0x11
    1620:	8707a703          	lw	a4,-1936(a5) # 10870 <__clz_tab+0x1c0>
    1624:	8747a783          	lw	a5,-1932(a5)
    1628:	fbdff06f          	j	15e4 <__ieee754_acos+0x5c>
    162c:	00050613          	mv	a2,a0
    1630:	00058693          	mv	a3,a1
    1634:	00048513          	mv	a0,s1
    1638:	00040593          	mv	a1,s0
    163c:	1fc050ef          	jal	ra,6838 <__subdf3>
    1640:	00050613          	mv	a2,a0
    1644:	00058693          	mv	a3,a1
    1648:	0f0040ef          	jal	ra,5738 <__divdf3>
    164c:	00050713          	mv	a4,a0
    1650:	00058793          	mv	a5,a1
    1654:	f91ff06f          	j	15e4 <__ieee754_acos+0x5c>
    1658:	3fe00737          	lui	a4,0x3fe00
    165c:	1ae7dc63          	bge	a5,a4,1814 <__ieee754_acos+0x28c>
    1660:	3c600737          	lui	a4,0x3c600
    1664:	58f75e63          	bge	a4,a5,1c00 <__ieee754_acos+0x678>
    1668:	00050613          	mv	a2,a0
    166c:	00058693          	mv	a3,a1
    1670:	00048513          	mv	a0,s1
    1674:	00040593          	mv	a1,s0
    1678:	2f5040ef          	jal	ra,616c <__muldf3>
    167c:	00050993          	mv	s3,a0
    1680:	00058913          	mv	s2,a1
    1684:	000117b7          	lui	a5,0x11
    1688:	8807a603          	lw	a2,-1920(a5) # 10880 <__clz_tab+0x1d0>
    168c:	8847a683          	lw	a3,-1916(a5)
    1690:	2dd040ef          	jal	ra,616c <__muldf3>
    1694:	000117b7          	lui	a5,0x11
    1698:	8887a603          	lw	a2,-1912(a5) # 10888 <__clz_tab+0x1d8>
    169c:	88c7a683          	lw	a3,-1908(a5)
    16a0:	0bd030ef          	jal	ra,4f5c <__adddf3>
    16a4:	00098613          	mv	a2,s3
    16a8:	00090693          	mv	a3,s2
    16ac:	2c1040ef          	jal	ra,616c <__muldf3>
    16b0:	000117b7          	lui	a5,0x11
    16b4:	8907a603          	lw	a2,-1904(a5) # 10890 <__clz_tab+0x1e0>
    16b8:	8947a683          	lw	a3,-1900(a5)
    16bc:	17c050ef          	jal	ra,6838 <__subdf3>
    16c0:	00098613          	mv	a2,s3
    16c4:	00090693          	mv	a3,s2
    16c8:	2a5040ef          	jal	ra,616c <__muldf3>
    16cc:	000117b7          	lui	a5,0x11
    16d0:	8987a603          	lw	a2,-1896(a5) # 10898 <__clz_tab+0x1e8>
    16d4:	89c7a683          	lw	a3,-1892(a5)
    16d8:	085030ef          	jal	ra,4f5c <__adddf3>
    16dc:	00098613          	mv	a2,s3
    16e0:	00090693          	mv	a3,s2
    16e4:	289040ef          	jal	ra,616c <__muldf3>
    16e8:	000117b7          	lui	a5,0x11
    16ec:	8a07a603          	lw	a2,-1888(a5) # 108a0 <__clz_tab+0x1f0>
    16f0:	8a47a683          	lw	a3,-1884(a5)
    16f4:	144050ef          	jal	ra,6838 <__subdf3>
    16f8:	00098613          	mv	a2,s3
    16fc:	00090693          	mv	a3,s2
    1700:	26d040ef          	jal	ra,616c <__muldf3>
    1704:	000117b7          	lui	a5,0x11
    1708:	8a87a603          	lw	a2,-1880(a5) # 108a8 <__clz_tab+0x1f8>
    170c:	8ac7a683          	lw	a3,-1876(a5)
    1710:	04d030ef          	jal	ra,4f5c <__adddf3>
    1714:	00098613          	mv	a2,s3
    1718:	00090693          	mv	a3,s2
    171c:	251040ef          	jal	ra,616c <__muldf3>
    1720:	00050a93          	mv	s5,a0
    1724:	00058a13          	mv	s4,a1
    1728:	000117b7          	lui	a5,0x11
    172c:	8b07a603          	lw	a2,-1872(a5) # 108b0 <__clz_tab+0x200>
    1730:	8b47a683          	lw	a3,-1868(a5)
    1734:	00098513          	mv	a0,s3
    1738:	00090593          	mv	a1,s2
    173c:	231040ef          	jal	ra,616c <__muldf3>
    1740:	000117b7          	lui	a5,0x11
    1744:	8b87a603          	lw	a2,-1864(a5) # 108b8 <__clz_tab+0x208>
    1748:	8bc7a683          	lw	a3,-1860(a5)
    174c:	0ec050ef          	jal	ra,6838 <__subdf3>
    1750:	00098613          	mv	a2,s3
    1754:	00090693          	mv	a3,s2
    1758:	215040ef          	jal	ra,616c <__muldf3>
    175c:	000117b7          	lui	a5,0x11
    1760:	8c07a603          	lw	a2,-1856(a5) # 108c0 <__clz_tab+0x210>
    1764:	8c47a683          	lw	a3,-1852(a5)
    1768:	7f4030ef          	jal	ra,4f5c <__adddf3>
    176c:	00098613          	mv	a2,s3
    1770:	00090693          	mv	a3,s2
    1774:	1f9040ef          	jal	ra,616c <__muldf3>
    1778:	000117b7          	lui	a5,0x11
    177c:	8c87a603          	lw	a2,-1848(a5) # 108c8 <__clz_tab+0x218>
    1780:	8cc7a683          	lw	a3,-1844(a5)
    1784:	0b4050ef          	jal	ra,6838 <__subdf3>
    1788:	00098613          	mv	a2,s3
    178c:	00090693          	mv	a3,s2
    1790:	1dd040ef          	jal	ra,616c <__muldf3>
    1794:	000107b7          	lui	a5,0x10
    1798:	7c07a603          	lw	a2,1984(a5) # 107c0 <__clz_tab+0x110>
    179c:	7c47a683          	lw	a3,1988(a5)
    17a0:	7bc030ef          	jal	ra,4f5c <__adddf3>
    17a4:	00050613          	mv	a2,a0
    17a8:	00058693          	mv	a3,a1
    17ac:	000a8513          	mv	a0,s5
    17b0:	000a0593          	mv	a1,s4
    17b4:	785030ef          	jal	ra,5738 <__divdf3>
    17b8:	00048613          	mv	a2,s1
    17bc:	00040693          	mv	a3,s0
    17c0:	1ad040ef          	jal	ra,616c <__muldf3>
    17c4:	00050613          	mv	a2,a0
    17c8:	00058693          	mv	a3,a1
    17cc:	000117b7          	lui	a5,0x11
    17d0:	8d07a503          	lw	a0,-1840(a5) # 108d0 <__clz_tab+0x220>
    17d4:	8d47a583          	lw	a1,-1836(a5)
    17d8:	060050ef          	jal	ra,6838 <__subdf3>
    17dc:	00050613          	mv	a2,a0
    17e0:	00058693          	mv	a3,a1
    17e4:	00048513          	mv	a0,s1
    17e8:	00040593          	mv	a1,s0
    17ec:	04c050ef          	jal	ra,6838 <__subdf3>
    17f0:	00050613          	mv	a2,a0
    17f4:	00058693          	mv	a3,a1
    17f8:	000117b7          	lui	a5,0x11
    17fc:	8787a503          	lw	a0,-1928(a5) # 10878 <__clz_tab+0x1c8>
    1800:	87c7a583          	lw	a1,-1924(a5)
    1804:	034050ef          	jal	ra,6838 <__subdf3>
    1808:	00050713          	mv	a4,a0
    180c:	00058793          	mv	a5,a1
    1810:	dd5ff06f          	j	15e4 <__ieee754_acos+0x5c>
    1814:	2205c063          	bltz	a1,1a34 <__ieee754_acos+0x4ac>
    1818:	00010c37          	lui	s8,0x10
    181c:	00050613          	mv	a2,a0
    1820:	00058693          	mv	a3,a1
    1824:	7c0c2503          	lw	a0,1984(s8) # 107c0 <__clz_tab+0x110>
    1828:	7c4c2583          	lw	a1,1988(s8)
    182c:	00c050ef          	jal	ra,6838 <__subdf3>
    1830:	000117b7          	lui	a5,0x11
    1834:	8287a603          	lw	a2,-2008(a5) # 10828 <__clz_tab+0x178>
    1838:	82c7a683          	lw	a3,-2004(a5)
    183c:	131040ef          	jal	ra,616c <__muldf3>
    1840:	00050493          	mv	s1,a0
    1844:	00058413          	mv	s0,a1
    1848:	24d010ef          	jal	ra,3294 <__ieee754_sqrt>
    184c:	00050a93          	mv	s5,a0
    1850:	00058a13          	mv	s4,a1
    1854:	00000993          	li	s3,0
    1858:	000117b7          	lui	a5,0x11
    185c:	8807a603          	lw	a2,-1920(a5) # 10880 <__clz_tab+0x1d0>
    1860:	8847a683          	lw	a3,-1916(a5)
    1864:	00048513          	mv	a0,s1
    1868:	00040593          	mv	a1,s0
    186c:	101040ef          	jal	ra,616c <__muldf3>
    1870:	000117b7          	lui	a5,0x11
    1874:	8887a603          	lw	a2,-1912(a5) # 10888 <__clz_tab+0x1d8>
    1878:	88c7a683          	lw	a3,-1908(a5)
    187c:	6e0030ef          	jal	ra,4f5c <__adddf3>
    1880:	00048613          	mv	a2,s1
    1884:	00040693          	mv	a3,s0
    1888:	0e5040ef          	jal	ra,616c <__muldf3>
    188c:	000117b7          	lui	a5,0x11
    1890:	8907a603          	lw	a2,-1904(a5) # 10890 <__clz_tab+0x1e0>
    1894:	8947a683          	lw	a3,-1900(a5)
    1898:	7a1040ef          	jal	ra,6838 <__subdf3>
    189c:	00048613          	mv	a2,s1
    18a0:	00040693          	mv	a3,s0
    18a4:	0c9040ef          	jal	ra,616c <__muldf3>
    18a8:	000117b7          	lui	a5,0x11
    18ac:	8987a603          	lw	a2,-1896(a5) # 10898 <__clz_tab+0x1e8>
    18b0:	89c7a683          	lw	a3,-1892(a5)
    18b4:	6a8030ef          	jal	ra,4f5c <__adddf3>
    18b8:	00048613          	mv	a2,s1
    18bc:	00040693          	mv	a3,s0
    18c0:	0ad040ef          	jal	ra,616c <__muldf3>
    18c4:	000117b7          	lui	a5,0x11
    18c8:	8a07a603          	lw	a2,-1888(a5) # 108a0 <__clz_tab+0x1f0>
    18cc:	8a47a683          	lw	a3,-1884(a5)
    18d0:	769040ef          	jal	ra,6838 <__subdf3>
    18d4:	00048613          	mv	a2,s1
    18d8:	00040693          	mv	a3,s0
    18dc:	091040ef          	jal	ra,616c <__muldf3>
    18e0:	000117b7          	lui	a5,0x11
    18e4:	8a87a603          	lw	a2,-1880(a5) # 108a8 <__clz_tab+0x1f8>
    18e8:	8ac7a683          	lw	a3,-1876(a5)
    18ec:	670030ef          	jal	ra,4f5c <__adddf3>
    18f0:	00048613          	mv	a2,s1
    18f4:	00040693          	mv	a3,s0
    18f8:	075040ef          	jal	ra,616c <__muldf3>
    18fc:	00050b93          	mv	s7,a0
    1900:	00058b13          	mv	s6,a1
    1904:	000117b7          	lui	a5,0x11
    1908:	8b07a603          	lw	a2,-1872(a5) # 108b0 <__clz_tab+0x200>
    190c:	8b47a683          	lw	a3,-1868(a5)
    1910:	00048513          	mv	a0,s1
    1914:	00040593          	mv	a1,s0
    1918:	055040ef          	jal	ra,616c <__muldf3>
    191c:	000117b7          	lui	a5,0x11
    1920:	8b87a603          	lw	a2,-1864(a5) # 108b8 <__clz_tab+0x208>
    1924:	8bc7a683          	lw	a3,-1860(a5)
    1928:	711040ef          	jal	ra,6838 <__subdf3>
    192c:	00048613          	mv	a2,s1
    1930:	00040693          	mv	a3,s0
    1934:	039040ef          	jal	ra,616c <__muldf3>
    1938:	000117b7          	lui	a5,0x11
    193c:	8c07a603          	lw	a2,-1856(a5) # 108c0 <__clz_tab+0x210>
    1940:	8c47a683          	lw	a3,-1852(a5)
    1944:	618030ef          	jal	ra,4f5c <__adddf3>
    1948:	00048613          	mv	a2,s1
    194c:	00040693          	mv	a3,s0
    1950:	01d040ef          	jal	ra,616c <__muldf3>
    1954:	000117b7          	lui	a5,0x11
    1958:	8c87a603          	lw	a2,-1848(a5) # 108c8 <__clz_tab+0x218>
    195c:	8cc7a683          	lw	a3,-1844(a5)
    1960:	6d9040ef          	jal	ra,6838 <__subdf3>
    1964:	00048613          	mv	a2,s1
    1968:	00040693          	mv	a3,s0
    196c:	001040ef          	jal	ra,616c <__muldf3>
    1970:	7c0c2603          	lw	a2,1984(s8)
    1974:	7c4c2683          	lw	a3,1988(s8)
    1978:	5e4030ef          	jal	ra,4f5c <__adddf3>
    197c:	00050613          	mv	a2,a0
    1980:	00058693          	mv	a3,a1
    1984:	000b8513          	mv	a0,s7
    1988:	000b0593          	mv	a1,s6
    198c:	5ad030ef          	jal	ra,5738 <__divdf3>
    1990:	000a8613          	mv	a2,s5
    1994:	000a0693          	mv	a3,s4
    1998:	7d4040ef          	jal	ra,616c <__muldf3>
    199c:	00050b93          	mv	s7,a0
    19a0:	00058b13          	mv	s6,a1
    19a4:	00098613          	mv	a2,s3
    19a8:	000a0693          	mv	a3,s4
    19ac:	00098513          	mv	a0,s3
    19b0:	000a0593          	mv	a1,s4
    19b4:	7b8040ef          	jal	ra,616c <__muldf3>
    19b8:	00050613          	mv	a2,a0
    19bc:	00058693          	mv	a3,a1
    19c0:	00048513          	mv	a0,s1
    19c4:	00040593          	mv	a1,s0
    19c8:	671040ef          	jal	ra,6838 <__subdf3>
    19cc:	00050493          	mv	s1,a0
    19d0:	00058413          	mv	s0,a1
    19d4:	00098613          	mv	a2,s3
    19d8:	000a0693          	mv	a3,s4
    19dc:	000a8513          	mv	a0,s5
    19e0:	000a0593          	mv	a1,s4
    19e4:	578030ef          	jal	ra,4f5c <__adddf3>
    19e8:	00050613          	mv	a2,a0
    19ec:	00058693          	mv	a3,a1
    19f0:	00048513          	mv	a0,s1
    19f4:	00040593          	mv	a1,s0
    19f8:	541030ef          	jal	ra,5738 <__divdf3>
    19fc:	00050613          	mv	a2,a0
    1a00:	00058693          	mv	a3,a1
    1a04:	000b8513          	mv	a0,s7
    1a08:	000b0593          	mv	a1,s6
    1a0c:	550030ef          	jal	ra,4f5c <__adddf3>
    1a10:	00098613          	mv	a2,s3
    1a14:	000a0693          	mv	a3,s4
    1a18:	544030ef          	jal	ra,4f5c <__adddf3>
    1a1c:	00050613          	mv	a2,a0
    1a20:	00058693          	mv	a3,a1
    1a24:	538030ef          	jal	ra,4f5c <__adddf3>
    1a28:	00050713          	mv	a4,a0
    1a2c:	00058793          	mv	a5,a1
    1a30:	bb5ff06f          	j	15e4 <__ieee754_acos+0x5c>
    1a34:	00010b37          	lui	s6,0x10
    1a38:	7c0b2603          	lw	a2,1984(s6) # 107c0 <__clz_tab+0x110>
    1a3c:	7c4b2683          	lw	a3,1988(s6)
    1a40:	00048513          	mv	a0,s1
    1a44:	00040593          	mv	a1,s0
    1a48:	514030ef          	jal	ra,4f5c <__adddf3>
    1a4c:	000117b7          	lui	a5,0x11
    1a50:	8287a603          	lw	a2,-2008(a5) # 10828 <__clz_tab+0x178>
    1a54:	82c7a683          	lw	a3,-2004(a5)
    1a58:	714040ef          	jal	ra,616c <__muldf3>
    1a5c:	00050493          	mv	s1,a0
    1a60:	00058413          	mv	s0,a1
    1a64:	000117b7          	lui	a5,0x11
    1a68:	8807a603          	lw	a2,-1920(a5) # 10880 <__clz_tab+0x1d0>
    1a6c:	8847a683          	lw	a3,-1916(a5)
    1a70:	6fc040ef          	jal	ra,616c <__muldf3>
    1a74:	000117b7          	lui	a5,0x11
    1a78:	8887a603          	lw	a2,-1912(a5) # 10888 <__clz_tab+0x1d8>
    1a7c:	88c7a683          	lw	a3,-1908(a5)
    1a80:	4dc030ef          	jal	ra,4f5c <__adddf3>
    1a84:	00048613          	mv	a2,s1
    1a88:	00040693          	mv	a3,s0
    1a8c:	6e0040ef          	jal	ra,616c <__muldf3>
    1a90:	000117b7          	lui	a5,0x11
    1a94:	8907a603          	lw	a2,-1904(a5) # 10890 <__clz_tab+0x1e0>
    1a98:	8947a683          	lw	a3,-1900(a5)
    1a9c:	59d040ef          	jal	ra,6838 <__subdf3>
    1aa0:	00048613          	mv	a2,s1
    1aa4:	00040693          	mv	a3,s0
    1aa8:	6c4040ef          	jal	ra,616c <__muldf3>
    1aac:	000117b7          	lui	a5,0x11
    1ab0:	8987a603          	lw	a2,-1896(a5) # 10898 <__clz_tab+0x1e8>
    1ab4:	89c7a683          	lw	a3,-1892(a5)
    1ab8:	4a4030ef          	jal	ra,4f5c <__adddf3>
    1abc:	00048613          	mv	a2,s1
    1ac0:	00040693          	mv	a3,s0
    1ac4:	6a8040ef          	jal	ra,616c <__muldf3>
    1ac8:	000117b7          	lui	a5,0x11
    1acc:	8a07a603          	lw	a2,-1888(a5) # 108a0 <__clz_tab+0x1f0>
    1ad0:	8a47a683          	lw	a3,-1884(a5)
    1ad4:	565040ef          	jal	ra,6838 <__subdf3>
    1ad8:	00048613          	mv	a2,s1
    1adc:	00040693          	mv	a3,s0
    1ae0:	68c040ef          	jal	ra,616c <__muldf3>
    1ae4:	000117b7          	lui	a5,0x11
    1ae8:	8a87a603          	lw	a2,-1880(a5) # 108a8 <__clz_tab+0x1f8>
    1aec:	8ac7a683          	lw	a3,-1876(a5)
    1af0:	46c030ef          	jal	ra,4f5c <__adddf3>
    1af4:	00048613          	mv	a2,s1
    1af8:	00040693          	mv	a3,s0
    1afc:	670040ef          	jal	ra,616c <__muldf3>
    1b00:	00050a93          	mv	s5,a0
    1b04:	00058a13          	mv	s4,a1
    1b08:	00048513          	mv	a0,s1
    1b0c:	00040593          	mv	a1,s0
    1b10:	784010ef          	jal	ra,3294 <__ieee754_sqrt>
    1b14:	00050993          	mv	s3,a0
    1b18:	00058913          	mv	s2,a1
    1b1c:	000117b7          	lui	a5,0x11
    1b20:	8b07a603          	lw	a2,-1872(a5) # 108b0 <__clz_tab+0x200>
    1b24:	8b47a683          	lw	a3,-1868(a5)
    1b28:	00048513          	mv	a0,s1
    1b2c:	00040593          	mv	a1,s0
    1b30:	63c040ef          	jal	ra,616c <__muldf3>
    1b34:	000117b7          	lui	a5,0x11
    1b38:	8b87a603          	lw	a2,-1864(a5) # 108b8 <__clz_tab+0x208>
    1b3c:	8bc7a683          	lw	a3,-1860(a5)
    1b40:	4f9040ef          	jal	ra,6838 <__subdf3>
    1b44:	00048613          	mv	a2,s1
    1b48:	00040693          	mv	a3,s0
    1b4c:	620040ef          	jal	ra,616c <__muldf3>
    1b50:	000117b7          	lui	a5,0x11
    1b54:	8c07a603          	lw	a2,-1856(a5) # 108c0 <__clz_tab+0x210>
    1b58:	8c47a683          	lw	a3,-1852(a5)
    1b5c:	400030ef          	jal	ra,4f5c <__adddf3>
    1b60:	00048613          	mv	a2,s1
    1b64:	00040693          	mv	a3,s0
    1b68:	604040ef          	jal	ra,616c <__muldf3>
    1b6c:	000117b7          	lui	a5,0x11
    1b70:	8c87a603          	lw	a2,-1848(a5) # 108c8 <__clz_tab+0x218>
    1b74:	8cc7a683          	lw	a3,-1844(a5)
    1b78:	4c1040ef          	jal	ra,6838 <__subdf3>
    1b7c:	00048613          	mv	a2,s1
    1b80:	00040693          	mv	a3,s0
    1b84:	5e8040ef          	jal	ra,616c <__muldf3>
    1b88:	7c0b2603          	lw	a2,1984(s6)
    1b8c:	7c4b2683          	lw	a3,1988(s6)
    1b90:	3cc030ef          	jal	ra,4f5c <__adddf3>
    1b94:	00050613          	mv	a2,a0
    1b98:	00058693          	mv	a3,a1
    1b9c:	000a8513          	mv	a0,s5
    1ba0:	000a0593          	mv	a1,s4
    1ba4:	395030ef          	jal	ra,5738 <__divdf3>
    1ba8:	00098613          	mv	a2,s3
    1bac:	00090693          	mv	a3,s2
    1bb0:	5bc040ef          	jal	ra,616c <__muldf3>
    1bb4:	000117b7          	lui	a5,0x11
    1bb8:	8d07a603          	lw	a2,-1840(a5) # 108d0 <__clz_tab+0x220>
    1bbc:	8d47a683          	lw	a3,-1836(a5)
    1bc0:	479040ef          	jal	ra,6838 <__subdf3>
    1bc4:	00098613          	mv	a2,s3
    1bc8:	00090693          	mv	a3,s2
    1bcc:	390030ef          	jal	ra,4f5c <__adddf3>
    1bd0:	00050613          	mv	a2,a0
    1bd4:	00058693          	mv	a3,a1
    1bd8:	384030ef          	jal	ra,4f5c <__adddf3>
    1bdc:	00050613          	mv	a2,a0
    1be0:	00058693          	mv	a3,a1
    1be4:	000117b7          	lui	a5,0x11
    1be8:	8707a503          	lw	a0,-1936(a5) # 10870 <__clz_tab+0x1c0>
    1bec:	8747a583          	lw	a1,-1932(a5)
    1bf0:	449040ef          	jal	ra,6838 <__subdf3>
    1bf4:	00050713          	mv	a4,a0
    1bf8:	00058793          	mv	a5,a1
    1bfc:	9e9ff06f          	j	15e4 <__ieee754_acos+0x5c>
    1c00:	000117b7          	lui	a5,0x11
    1c04:	8787a703          	lw	a4,-1928(a5) # 10878 <__clz_tab+0x1c8>
    1c08:	87c7a783          	lw	a5,-1924(a5)
    1c0c:	9d9ff06f          	j	15e4 <__ieee754_acos+0x5c>

00001c10 <__ieee754_pow>:
    1c10:	fa010113          	addi	sp,sp,-96
    1c14:	04112e23          	sw	ra,92(sp)
    1c18:	04812c23          	sw	s0,88(sp)
    1c1c:	04912a23          	sw	s1,84(sp)
    1c20:	05212823          	sw	s2,80(sp)
    1c24:	05312623          	sw	s3,76(sp)
    1c28:	05412423          	sw	s4,72(sp)
    1c2c:	05512223          	sw	s5,68(sp)
    1c30:	05612023          	sw	s6,64(sp)
    1c34:	03712e23          	sw	s7,60(sp)
    1c38:	03812c23          	sw	s8,56(sp)
    1c3c:	03912a23          	sw	s9,52(sp)
    1c40:	03a12823          	sw	s10,48(sp)
    1c44:	03b12623          	sw	s11,44(sp)
    1c48:	00050a93          	mv	s5,a0
    1c4c:	00058a13          	mv	s4,a1
    1c50:	00060413          	mv	s0,a2
    1c54:	00068493          	mv	s1,a3
    1c58:	00169b13          	slli	s6,a3,0x1
    1c5c:	001b5b13          	srli	s6,s6,0x1
    1c60:	00cb67b3          	or	a5,s6,a2
    1c64:	04079663          	bnez	a5,1cb0 <__ieee754_pow+0xa0>
    1c68:	000807b7          	lui	a5,0x80
    1c6c:	00b7c7b3          	xor	a5,a5,a1
    1c70:	01f55713          	srli	a4,a0,0x1f
    1c74:	00179793          	slli	a5,a5,0x1
    1c78:	00f767b3          	or	a5,a4,a5
    1c7c:	00151693          	slli	a3,a0,0x1
    1c80:	fff00737          	lui	a4,0xfff00
    1c84:	00f76a63          	bltu	a4,a5,1c98 <__ieee754_pow+0x88>
    1c88:	00e78463          	beq	a5,a4,1c90 <__ieee754_pow+0x80>
    1c8c:	7210006f          	j	2bac <__ieee754_pow+0xf9c>
    1c90:	00069463          	bnez	a3,1c98 <__ieee754_pow+0x88>
    1c94:	7190006f          	j	2bac <__ieee754_pow+0xf9c>
    1c98:	00040613          	mv	a2,s0
    1c9c:	00048693          	mv	a3,s1
    1ca0:	000a8513          	mv	a0,s5
    1ca4:	000a0593          	mv	a1,s4
    1ca8:	2b4030ef          	jal	ra,4f5c <__adddf3>
    1cac:	0c40006f          	j	1d70 <__ieee754_pow+0x160>
    1cb0:	00068c13          	mv	s8,a3
    1cb4:	00060713          	mv	a4,a2
    1cb8:	00058c93          	mv	s9,a1
    1cbc:	00050993          	mv	s3,a0
    1cc0:	00159b93          	slli	s7,a1,0x1
    1cc4:	001bdb93          	srli	s7,s7,0x1
    1cc8:	7ff007b7          	lui	a5,0x7ff00
    1ccc:	0f77ca63          	blt	a5,s7,1dc0 <__ieee754_pow+0x1b0>
    1cd0:	08fb8463          	beq	s7,a5,1d58 <__ieee754_pow+0x148>
    1cd4:	7ff007b7          	lui	a5,0x7ff00
    1cd8:	0f67c463          	blt	a5,s6,1dc0 <__ieee754_pow+0x1b0>
    1cdc:	0efb0063          	beq	s6,a5,1dbc <__ieee754_pow+0x1ac>
    1ce0:	00000913          	li	s2,0
    1ce4:	120cc263          	bltz	s9,1e08 <__ieee754_pow+0x1f8>
    1ce8:	02071263          	bnez	a4,1d0c <__ieee754_pow+0xfc>
    1cec:	7ff007b7          	lui	a5,0x7ff00
    1cf0:	18fb0863          	beq	s6,a5,1e80 <__ieee754_pow+0x270>
    1cf4:	3ff007b7          	lui	a5,0x3ff00
    1cf8:	1cfb0a63          	beq	s6,a5,1ecc <__ieee754_pow+0x2bc>
    1cfc:	400007b7          	lui	a5,0x40000
    1d00:	1efc0a63          	beq	s8,a5,1ef4 <__ieee754_pow+0x2e4>
    1d04:	3fe007b7          	lui	a5,0x3fe00
    1d08:	20fc0263          	beq	s8,a5,1f0c <__ieee754_pow+0x2fc>
    1d0c:	000a8513          	mv	a0,s5
    1d10:	000a0593          	mv	a1,s4
    1d14:	635020ef          	jal	ra,4b48 <fabs>
    1d18:	20098663          	beqz	s3,1f24 <__ieee754_pow+0x314>
    1d1c:	01fa5993          	srli	s3,s4,0x1f
    1d20:	fff98993          	addi	s3,s3,-1
    1d24:	013967b3          	or	a5,s2,s3
    1d28:	00079463          	bnez	a5,1d30 <__ieee754_pow+0x120>
    1d2c:	6c10006f          	j	2bec <__ieee754_pow+0xfdc>
    1d30:	41e007b7          	lui	a5,0x41e00
    1d34:	4567d663          	bge	a5,s6,2180 <__ieee754_pow+0x570>
    1d38:	43f007b7          	lui	a5,0x43f00
    1d3c:	2967d863          	bge	a5,s6,1fcc <__ieee754_pow+0x3bc>
    1d40:	3ff007b7          	lui	a5,0x3ff00
    1d44:	26fbd663          	bge	s7,a5,1fb0 <__ieee754_pow+0x3a0>
    1d48:	240c4e63          	bltz	s8,1fa4 <__ieee754_pow+0x394>
    1d4c:	00000513          	li	a0,0
    1d50:	3a9020ef          	jal	ra,48f8 <__math_uflow>
    1d54:	01c0006f          	j	1d70 <__ieee754_pow+0x160>
    1d58:	f6050ee3          	beqz	a0,1cd4 <__ieee754_pow+0xc4>
    1d5c:	00040613          	mv	a2,s0
    1d60:	00048693          	mv	a3,s1
    1d64:	000a8513          	mv	a0,s5
    1d68:	000a0593          	mv	a1,s4
    1d6c:	1f0030ef          	jal	ra,4f5c <__adddf3>
    1d70:	00050713          	mv	a4,a0
    1d74:	00058793          	mv	a5,a1
    1d78:	00070513          	mv	a0,a4
    1d7c:	00078593          	mv	a1,a5
    1d80:	05c12083          	lw	ra,92(sp)
    1d84:	05812403          	lw	s0,88(sp)
    1d88:	05412483          	lw	s1,84(sp)
    1d8c:	05012903          	lw	s2,80(sp)
    1d90:	04c12983          	lw	s3,76(sp)
    1d94:	04812a03          	lw	s4,72(sp)
    1d98:	04412a83          	lw	s5,68(sp)
    1d9c:	04012b03          	lw	s6,64(sp)
    1da0:	03c12b83          	lw	s7,60(sp)
    1da4:	03812c03          	lw	s8,56(sp)
    1da8:	03412c83          	lw	s9,52(sp)
    1dac:	03012d03          	lw	s10,48(sp)
    1db0:	02c12d83          	lw	s11,44(sp)
    1db4:	06010113          	addi	sp,sp,96
    1db8:	00008067          	ret
    1dbc:	f20702e3          	beqz	a4,1ce0 <__ieee754_pow+0xd0>
    1dc0:	c01007b7          	lui	a5,0xc0100
    1dc4:	00fa07b3          	add	a5,s4,a5
    1dc8:	0157e7b3          	or	a5,a5,s5
    1dcc:	f80798e3          	bnez	a5,1d5c <__ieee754_pow+0x14c>
    1dd0:	000807b7          	lui	a5,0x80
    1dd4:	0097c7b3          	xor	a5,a5,s1
    1dd8:	01f45713          	srli	a4,s0,0x1f
    1ddc:	00179793          	slli	a5,a5,0x1
    1de0:	00f767b3          	or	a5,a4,a5
    1de4:	00141693          	slli	a3,s0,0x1
    1de8:	fff00737          	lui	a4,0xfff00
    1dec:	f6f768e3          	bltu	a4,a5,1d5c <__ieee754_pow+0x14c>
    1df0:	00e79463          	bne	a5,a4,1df8 <__ieee754_pow+0x1e8>
    1df4:	f60694e3          	bnez	a3,1d5c <__ieee754_pow+0x14c>
    1df8:	00000513          	li	a0,0
    1dfc:	000107b7          	lui	a5,0x10
    1e00:	7c47a583          	lw	a1,1988(a5) # 107c4 <__clz_tab+0x114>
    1e04:	f6dff06f          	j	1d70 <__ieee754_pow+0x160>
    1e08:	434007b7          	lui	a5,0x43400
    1e0c:	06fb5663          	bge	s6,a5,1e78 <__ieee754_pow+0x268>
    1e10:	3ff007b7          	lui	a5,0x3ff00
    1e14:	5afb4ce3          	blt	s6,a5,2bcc <__ieee754_pow+0xfbc>
    1e18:	414b5793          	srai	a5,s6,0x14
    1e1c:	c0178793          	addi	a5,a5,-1023 # 3feffc01 <soln_cnt0+0x3feef125>
    1e20:	01400693          	li	a3,20
    1e24:	02f6d463          	bge	a3,a5,1e4c <__ieee754_pow+0x23c>
    1e28:	03400693          	li	a3,52
    1e2c:	40f687b3          	sub	a5,a3,a5
    1e30:	00f456b3          	srl	a3,s0,a5
    1e34:	00f697b3          	sll	a5,a3,a5
    1e38:	58e79ce3          	bne	a5,a4,2bd0 <__ieee754_pow+0xfc0>
    1e3c:	0016f693          	andi	a3,a3,1
    1e40:	00200913          	li	s2,2
    1e44:	40d90933          	sub	s2,s2,a3
    1e48:	5890006f          	j	2bd0 <__ieee754_pow+0xfc0>
    1e4c:	580718e3          	bnez	a4,2bdc <__ieee754_pow+0xfcc>
    1e50:	01400713          	li	a4,20
    1e54:	40f707b3          	sub	a5,a4,a5
    1e58:	40fb5733          	sra	a4,s6,a5
    1e5c:	00f717b3          	sll	a5,a4,a5
    1e60:	00000913          	li	s2,0
    1e64:	e96798e3          	bne	a5,s6,1cf4 <__ieee754_pow+0xe4>
    1e68:	00177713          	andi	a4,a4,1
    1e6c:	00200913          	li	s2,2
    1e70:	40e90933          	sub	s2,s2,a4
    1e74:	e81ff06f          	j	1cf4 <__ieee754_pow+0xe4>
    1e78:	00200913          	li	s2,2
    1e7c:	e6dff06f          	j	1ce8 <__ieee754_pow+0xd8>
    1e80:	c01007b7          	lui	a5,0xc0100
    1e84:	00fb87b3          	add	a5,s7,a5
    1e88:	0157e7b3          	or	a5,a5,s5
    1e8c:	520788e3          	beqz	a5,2bbc <__ieee754_pow+0xfac>
    1e90:	3ff007b7          	lui	a5,0x3ff00
    1e94:	00fbce63          	blt	s7,a5,1eb0 <__ieee754_pow+0x2a0>
    1e98:	00040513          	mv	a0,s0
    1e9c:	00048593          	mv	a1,s1
    1ea0:	ec0c58e3          	bgez	s8,1d70 <__ieee754_pow+0x160>
    1ea4:	00000513          	li	a0,0
    1ea8:	00000593          	li	a1,0
    1eac:	ec5ff06f          	j	1d70 <__ieee754_pow+0x160>
    1eb0:	00000513          	li	a0,0
    1eb4:	00000593          	li	a1,0
    1eb8:	ea0c5ce3          	bgez	s8,1d70 <__ieee754_pow+0x160>
    1ebc:	00040513          	mv	a0,s0
    1ec0:	800005b7          	lui	a1,0x80000
    1ec4:	0095c5b3          	xor	a1,a1,s1
    1ec8:	ea9ff06f          	j	1d70 <__ieee754_pow+0x160>
    1ecc:	000a8513          	mv	a0,s5
    1ed0:	000a0593          	mv	a1,s4
    1ed4:	e80c5ee3          	bgez	s8,1d70 <__ieee754_pow+0x160>
    1ed8:	00050613          	mv	a2,a0
    1edc:	00058693          	mv	a3,a1
    1ee0:	000107b7          	lui	a5,0x10
    1ee4:	7c07a503          	lw	a0,1984(a5) # 107c0 <__clz_tab+0x110>
    1ee8:	7c47a583          	lw	a1,1988(a5)
    1eec:	04d030ef          	jal	ra,5738 <__divdf3>
    1ef0:	e81ff06f          	j	1d70 <__ieee754_pow+0x160>
    1ef4:	000a8613          	mv	a2,s5
    1ef8:	000a0693          	mv	a3,s4
    1efc:	000a8513          	mv	a0,s5
    1f00:	000a0593          	mv	a1,s4
    1f04:	268040ef          	jal	ra,616c <__muldf3>
    1f08:	e69ff06f          	j	1d70 <__ieee754_pow+0x160>
    1f0c:	e00cc0e3          	bltz	s9,1d0c <__ieee754_pow+0xfc>
    1f10:	000a8513          	mv	a0,s5
    1f14:	000a0593          	mv	a1,s4
    1f18:	37c010ef          	jal	ra,3294 <__ieee754_sqrt>
    1f1c:	e55ff06f          	j	1d70 <__ieee754_pow+0x160>
    1f20:	00000913          	li	s2,0
    1f24:	000b8a63          	beqz	s7,1f38 <__ieee754_pow+0x328>
    1f28:	002a1793          	slli	a5,s4,0x2
    1f2c:	0027d793          	srli	a5,a5,0x2
    1f30:	3ff00737          	lui	a4,0x3ff00
    1f34:	dee794e3          	bne	a5,a4,1d1c <__ieee754_pow+0x10c>
    1f38:	020c4e63          	bltz	s8,1f74 <__ieee754_pow+0x364>
    1f3c:	e20cdae3          	bgez	s9,1d70 <__ieee754_pow+0x160>
    1f40:	c01007b7          	lui	a5,0xc0100
    1f44:	00fb87b3          	add	a5,s7,a5
    1f48:	0127e7b3          	or	a5,a5,s2
    1f4c:	04079263          	bnez	a5,1f90 <__ieee754_pow+0x380>
    1f50:	00050613          	mv	a2,a0
    1f54:	00058693          	mv	a3,a1
    1f58:	00060513          	mv	a0,a2
    1f5c:	00068593          	mv	a1,a3
    1f60:	0d9040ef          	jal	ra,6838 <__subdf3>
    1f64:	00050613          	mv	a2,a0
    1f68:	00058693          	mv	a3,a1
    1f6c:	7cc030ef          	jal	ra,5738 <__divdf3>
    1f70:	e01ff06f          	j	1d70 <__ieee754_pow+0x160>
    1f74:	00050613          	mv	a2,a0
    1f78:	00058693          	mv	a3,a1
    1f7c:	000107b7          	lui	a5,0x10
    1f80:	7c07a503          	lw	a0,1984(a5) # 107c0 <__clz_tab+0x110>
    1f84:	7c47a583          	lw	a1,1988(a5)
    1f88:	7b0030ef          	jal	ra,5738 <__divdf3>
    1f8c:	fb1ff06f          	j	1f3c <__ieee754_pow+0x32c>
    1f90:	00100793          	li	a5,1
    1f94:	dcf91ee3          	bne	s2,a5,1d70 <__ieee754_pow+0x160>
    1f98:	800007b7          	lui	a5,0x80000
    1f9c:	00b7c5b3          	xor	a1,a5,a1
    1fa0:	dd1ff06f          	j	1d70 <__ieee754_pow+0x160>
    1fa4:	00000513          	li	a0,0
    1fa8:	199020ef          	jal	ra,4940 <__math_oflow>
    1fac:	dc5ff06f          	j	1d70 <__ieee754_pow+0x160>
    1fb0:	01805863          	blez	s8,1fc0 <__ieee754_pow+0x3b0>
    1fb4:	00000513          	li	a0,0
    1fb8:	189020ef          	jal	ra,4940 <__math_oflow>
    1fbc:	db5ff06f          	j	1d70 <__ieee754_pow+0x160>
    1fc0:	00000513          	li	a0,0
    1fc4:	135020ef          	jal	ra,48f8 <__math_uflow>
    1fc8:	da9ff06f          	j	1d70 <__ieee754_pow+0x160>
    1fcc:	3ff007b7          	lui	a5,0x3ff00
    1fd0:	ffe78793          	addi	a5,a5,-2 # 3feffffe <soln_cnt0+0x3feef522>
    1fd4:	1777da63          	bge	a5,s7,2148 <__ieee754_pow+0x538>
    1fd8:	3ff007b7          	lui	a5,0x3ff00
    1fdc:	1977c463          	blt	a5,s7,2164 <__ieee754_pow+0x554>
    1fe0:	000107b7          	lui	a5,0x10
    1fe4:	7c07a603          	lw	a2,1984(a5) # 107c0 <__clz_tab+0x110>
    1fe8:	7c47a683          	lw	a3,1988(a5)
    1fec:	00050713          	mv	a4,a0
    1ff0:	00058793          	mv	a5,a1
    1ff4:	00070513          	mv	a0,a4
    1ff8:	00078593          	mv	a1,a5
    1ffc:	03d040ef          	jal	ra,6838 <__subdf3>
    2000:	00050a93          	mv	s5,a0
    2004:	00058a13          	mv	s4,a1
    2008:	000117b7          	lui	a5,0x11
    200c:	8d87a603          	lw	a2,-1832(a5) # 108d8 <__clz_tab+0x228>
    2010:	8dc7a683          	lw	a3,-1828(a5)
    2014:	158040ef          	jal	ra,616c <__muldf3>
    2018:	00050c93          	mv	s9,a0
    201c:	00058c13          	mv	s8,a1
    2020:	000117b7          	lui	a5,0x11
    2024:	8e07a603          	lw	a2,-1824(a5) # 108e0 <__clz_tab+0x230>
    2028:	8e47a683          	lw	a3,-1820(a5)
    202c:	000a8513          	mv	a0,s5
    2030:	000a0593          	mv	a1,s4
    2034:	138040ef          	jal	ra,616c <__muldf3>
    2038:	00050b93          	mv	s7,a0
    203c:	00058b13          	mv	s6,a1
    2040:	000117b7          	lui	a5,0x11
    2044:	8e87a603          	lw	a2,-1816(a5) # 108e8 <__clz_tab+0x238>
    2048:	8ec7a683          	lw	a3,-1812(a5)
    204c:	000a8513          	mv	a0,s5
    2050:	000a0593          	mv	a1,s4
    2054:	118040ef          	jal	ra,616c <__muldf3>
    2058:	00050613          	mv	a2,a0
    205c:	00058693          	mv	a3,a1
    2060:	000117b7          	lui	a5,0x11
    2064:	8687a503          	lw	a0,-1944(a5) # 10868 <__clz_tab+0x1b8>
    2068:	86c7a583          	lw	a1,-1940(a5)
    206c:	7cc040ef          	jal	ra,6838 <__subdf3>
    2070:	000a8613          	mv	a2,s5
    2074:	000a0693          	mv	a3,s4
    2078:	0f4040ef          	jal	ra,616c <__muldf3>
    207c:	00050613          	mv	a2,a0
    2080:	00058693          	mv	a3,a1
    2084:	000117b7          	lui	a5,0x11
    2088:	8287a503          	lw	a0,-2008(a5) # 10828 <__clz_tab+0x178>
    208c:	82c7a583          	lw	a1,-2004(a5)
    2090:	7a8040ef          	jal	ra,6838 <__subdf3>
    2094:	00050d93          	mv	s11,a0
    2098:	00058d13          	mv	s10,a1
    209c:	000a8613          	mv	a2,s5
    20a0:	000a0693          	mv	a3,s4
    20a4:	000a8513          	mv	a0,s5
    20a8:	000a0593          	mv	a1,s4
    20ac:	0c0040ef          	jal	ra,616c <__muldf3>
    20b0:	00050613          	mv	a2,a0
    20b4:	00058693          	mv	a3,a1
    20b8:	000d8513          	mv	a0,s11
    20bc:	000d0593          	mv	a1,s10
    20c0:	0ac040ef          	jal	ra,616c <__muldf3>
    20c4:	000117b7          	lui	a5,0x11
    20c8:	8f07a603          	lw	a2,-1808(a5) # 108f0 <__clz_tab+0x240>
    20cc:	8f47a683          	lw	a3,-1804(a5)
    20d0:	09c040ef          	jal	ra,616c <__muldf3>
    20d4:	00050613          	mv	a2,a0
    20d8:	00058693          	mv	a3,a1
    20dc:	000b8513          	mv	a0,s7
    20e0:	000b0593          	mv	a1,s6
    20e4:	754040ef          	jal	ra,6838 <__subdf3>
    20e8:	00050b93          	mv	s7,a0
    20ec:	00058b13          	mv	s6,a1
    20f0:	00050613          	mv	a2,a0
    20f4:	00058693          	mv	a3,a1
    20f8:	000c8513          	mv	a0,s9
    20fc:	000c0593          	mv	a1,s8
    2100:	65d020ef          	jal	ra,4f5c <__adddf3>
    2104:	00000713          	li	a4,0
    2108:	00058793          	mv	a5,a1
    210c:	00070a13          	mv	s4,a4
    2110:	00058a93          	mv	s5,a1
    2114:	000c8613          	mv	a2,s9
    2118:	000c0693          	mv	a3,s8
    211c:	00070513          	mv	a0,a4
    2120:	00078593          	mv	a1,a5
    2124:	714040ef          	jal	ra,6838 <__subdf3>
    2128:	00050613          	mv	a2,a0
    212c:	00058693          	mv	a3,a1
    2130:	000b8513          	mv	a0,s7
    2134:	000b0593          	mv	a1,s6
    2138:	700040ef          	jal	ra,6838 <__subdf3>
    213c:	00050b93          	mv	s7,a0
    2140:	00058b13          	mv	s6,a1
    2144:	5580006f          	j	269c <__ieee754_pow+0xa8c>
    2148:	000c4863          	bltz	s8,2158 <__ieee754_pow+0x548>
    214c:	00000513          	li	a0,0
    2150:	7a8020ef          	jal	ra,48f8 <__math_uflow>
    2154:	c1dff06f          	j	1d70 <__ieee754_pow+0x160>
    2158:	00000513          	li	a0,0
    215c:	7e4020ef          	jal	ra,4940 <__math_oflow>
    2160:	c11ff06f          	j	1d70 <__ieee754_pow+0x160>
    2164:	01805863          	blez	s8,2174 <__ieee754_pow+0x564>
    2168:	00000513          	li	a0,0
    216c:	7d4020ef          	jal	ra,4940 <__math_oflow>
    2170:	c01ff06f          	j	1d70 <__ieee754_pow+0x160>
    2174:	00000513          	li	a0,0
    2178:	780020ef          	jal	ra,48f8 <__math_uflow>
    217c:	bf5ff06f          	j	1d70 <__ieee754_pow+0x160>
    2180:	7ff007b7          	lui	a5,0x7ff00
    2184:	00fa77b3          	and	a5,s4,a5
    2188:	00000713          	li	a4,0
    218c:	02079663          	bnez	a5,21b8 <__ieee754_pow+0x5a8>
    2190:	000117b7          	lui	a5,0x11
    2194:	8f87a603          	lw	a2,-1800(a5) # 108f8 <__clz_tab+0x248>
    2198:	8fc7a683          	lw	a3,-1796(a5)
    219c:	00050713          	mv	a4,a0
    21a0:	00058793          	mv	a5,a1
    21a4:	00070513          	mv	a0,a4
    21a8:	00078593          	mv	a1,a5
    21ac:	7c1030ef          	jal	ra,616c <__muldf3>
    21b0:	00058b93          	mv	s7,a1
    21b4:	fcb00713          	li	a4,-53
    21b8:	414bdd13          	srai	s10,s7,0x14
    21bc:	c01d0d13          	addi	s10,s10,-1023 # 40021c01 <soln_cnt0+0x40011125>
    21c0:	00ed0d33          	add	s10,s10,a4
    21c4:	00cb9793          	slli	a5,s7,0xc
    21c8:	00c7d793          	srli	a5,a5,0xc
    21cc:	3ff00b37          	lui	s6,0x3ff00
    21d0:	0167eb33          	or	s6,a5,s6
    21d4:	0003a737          	lui	a4,0x3a
    21d8:	88e70713          	addi	a4,a4,-1906 # 3988e <soln_cnt0+0x28db2>
    21dc:	00000d93          	li	s11,0
    21e0:	02f75263          	bge	a4,a5,2204 <__ieee754_pow+0x5f4>
    21e4:	000bb737          	lui	a4,0xbb
    21e8:	67970713          	addi	a4,a4,1657 # bb679 <soln_cnt0+0xaab9d>
    21ec:	00100d93          	li	s11,1
    21f0:	00f75a63          	bge	a4,a5,2204 <__ieee754_pow+0x5f4>
    21f4:	001d0d13          	addi	s10,s10,1
    21f8:	fff007b7          	lui	a5,0xfff00
    21fc:	00fb0b33          	add	s6,s6,a5
    2200:	00000d93          	li	s11,0
    2204:	00050c93          	mv	s9,a0
    2208:	003d9793          	slli	a5,s11,0x3
    220c:	00010bb7          	lui	s7,0x10
    2210:	430b8b93          	addi	s7,s7,1072 # 10430 <bp>
    2214:	00fb8bb3          	add	s7,s7,a5
    2218:	000baa03          	lw	s4,0(s7)
    221c:	004baa83          	lw	s5,4(s7)
    2220:	000a0613          	mv	a2,s4
    2224:	000a8693          	mv	a3,s5
    2228:	000c8513          	mv	a0,s9
    222c:	000b0593          	mv	a1,s6
    2230:	608040ef          	jal	ra,6838 <__subdf3>
    2234:	00a12423          	sw	a0,8(sp)
    2238:	00b12623          	sw	a1,12(sp)
    223c:	01912823          	sw	s9,16(sp)
    2240:	000c8613          	mv	a2,s9
    2244:	01612a23          	sw	s6,20(sp)
    2248:	000b0693          	mv	a3,s6
    224c:	000a0513          	mv	a0,s4
    2250:	000a8593          	mv	a1,s5
    2254:	509020ef          	jal	ra,4f5c <__adddf3>
    2258:	00050613          	mv	a2,a0
    225c:	00058693          	mv	a3,a1
    2260:	000107b7          	lui	a5,0x10
    2264:	7c07a503          	lw	a0,1984(a5) # 107c0 <__clz_tab+0x110>
    2268:	7c47a583          	lw	a1,1988(a5)
    226c:	4cc030ef          	jal	ra,5738 <__divdf3>
    2270:	00a12c23          	sw	a0,24(sp)
    2274:	00050613          	mv	a2,a0
    2278:	00b12e23          	sw	a1,28(sp)
    227c:	00058693          	mv	a3,a1
    2280:	00812503          	lw	a0,8(sp)
    2284:	00c12583          	lw	a1,12(sp)
    2288:	6e5030ef          	jal	ra,616c <__muldf3>
    228c:	00a12023          	sw	a0,0(sp)
    2290:	00000c93          	li	s9,0
    2294:	00b12223          	sw	a1,4(sp)
    2298:	00058c13          	mv	s8,a1
    229c:	401b5793          	srai	a5,s6,0x1
    22a0:	20000737          	lui	a4,0x20000
    22a4:	00e7e7b3          	or	a5,a5,a4
    22a8:	00080737          	lui	a4,0x80
    22ac:	00e787b3          	add	a5,a5,a4
    22b0:	012d9713          	slli	a4,s11,0x12
    22b4:	00000d93          	li	s11,0
    22b8:	00e78b33          	add	s6,a5,a4
    22bc:	000d8613          	mv	a2,s11
    22c0:	000b0693          	mv	a3,s6
    22c4:	000c8513          	mv	a0,s9
    22c8:	000c0593          	mv	a1,s8
    22cc:	6a1030ef          	jal	ra,616c <__muldf3>
    22d0:	00050613          	mv	a2,a0
    22d4:	00058693          	mv	a3,a1
    22d8:	00812503          	lw	a0,8(sp)
    22dc:	00c12583          	lw	a1,12(sp)
    22e0:	558040ef          	jal	ra,6838 <__subdf3>
    22e4:	00a12423          	sw	a0,8(sp)
    22e8:	00b12623          	sw	a1,12(sp)
    22ec:	000a0613          	mv	a2,s4
    22f0:	000a8693          	mv	a3,s5
    22f4:	000d8513          	mv	a0,s11
    22f8:	000b0593          	mv	a1,s6
    22fc:	53c040ef          	jal	ra,6838 <__subdf3>
    2300:	00050613          	mv	a2,a0
    2304:	00058693          	mv	a3,a1
    2308:	01012503          	lw	a0,16(sp)
    230c:	01412583          	lw	a1,20(sp)
    2310:	528040ef          	jal	ra,6838 <__subdf3>
    2314:	000c8613          	mv	a2,s9
    2318:	000c0693          	mv	a3,s8
    231c:	651030ef          	jal	ra,616c <__muldf3>
    2320:	00050613          	mv	a2,a0
    2324:	00058693          	mv	a3,a1
    2328:	00812503          	lw	a0,8(sp)
    232c:	00c12583          	lw	a1,12(sp)
    2330:	508040ef          	jal	ra,6838 <__subdf3>
    2334:	01812603          	lw	a2,24(sp)
    2338:	01c12683          	lw	a3,28(sp)
    233c:	631030ef          	jal	ra,616c <__muldf3>
    2340:	00a12423          	sw	a0,8(sp)
    2344:	00b12623          	sw	a1,12(sp)
    2348:	00012703          	lw	a4,0(sp)
    234c:	00070613          	mv	a2,a4
    2350:	000c0693          	mv	a3,s8
    2354:	00070513          	mv	a0,a4
    2358:	000c0593          	mv	a1,s8
    235c:	611030ef          	jal	ra,616c <__muldf3>
    2360:	00050a93          	mv	s5,a0
    2364:	00058a13          	mv	s4,a1
    2368:	000117b7          	lui	a5,0x11
    236c:	9007a603          	lw	a2,-1792(a5) # 10900 <__clz_tab+0x250>
    2370:	9047a683          	lw	a3,-1788(a5)
    2374:	5f9030ef          	jal	ra,616c <__muldf3>
    2378:	000117b7          	lui	a5,0x11
    237c:	9087a603          	lw	a2,-1784(a5) # 10908 <__clz_tab+0x258>
    2380:	90c7a683          	lw	a3,-1780(a5)
    2384:	3d9020ef          	jal	ra,4f5c <__adddf3>
    2388:	000a8613          	mv	a2,s5
    238c:	000a0693          	mv	a3,s4
    2390:	5dd030ef          	jal	ra,616c <__muldf3>
    2394:	000117b7          	lui	a5,0x11
    2398:	9107a603          	lw	a2,-1776(a5) # 10910 <__clz_tab+0x260>
    239c:	9147a683          	lw	a3,-1772(a5)
    23a0:	3bd020ef          	jal	ra,4f5c <__adddf3>
    23a4:	000a8613          	mv	a2,s5
    23a8:	000a0693          	mv	a3,s4
    23ac:	5c1030ef          	jal	ra,616c <__muldf3>
    23b0:	000117b7          	lui	a5,0x11
    23b4:	9187a603          	lw	a2,-1768(a5) # 10918 <__clz_tab+0x268>
    23b8:	91c7a683          	lw	a3,-1764(a5)
    23bc:	3a1020ef          	jal	ra,4f5c <__adddf3>
    23c0:	000a8613          	mv	a2,s5
    23c4:	000a0693          	mv	a3,s4
    23c8:	5a5030ef          	jal	ra,616c <__muldf3>
    23cc:	000117b7          	lui	a5,0x11
    23d0:	9207a603          	lw	a2,-1760(a5) # 10920 <__clz_tab+0x270>
    23d4:	9247a683          	lw	a3,-1756(a5)
    23d8:	385020ef          	jal	ra,4f5c <__adddf3>
    23dc:	000a8613          	mv	a2,s5
    23e0:	000a0693          	mv	a3,s4
    23e4:	589030ef          	jal	ra,616c <__muldf3>
    23e8:	000117b7          	lui	a5,0x11
    23ec:	9287a603          	lw	a2,-1752(a5) # 10928 <__clz_tab+0x278>
    23f0:	92c7a683          	lw	a3,-1748(a5)
    23f4:	369020ef          	jal	ra,4f5c <__adddf3>
    23f8:	00050b13          	mv	s6,a0
    23fc:	00058d93          	mv	s11,a1
    2400:	000a8613          	mv	a2,s5
    2404:	000a0693          	mv	a3,s4
    2408:	000a8513          	mv	a0,s5
    240c:	000a0593          	mv	a1,s4
    2410:	55d030ef          	jal	ra,616c <__muldf3>
    2414:	00050613          	mv	a2,a0
    2418:	00058693          	mv	a3,a1
    241c:	000b0513          	mv	a0,s6
    2420:	000d8593          	mv	a1,s11
    2424:	549030ef          	jal	ra,616c <__muldf3>
    2428:	00050a13          	mv	s4,a0
    242c:	00058a93          	mv	s5,a1
    2430:	000c8613          	mv	a2,s9
    2434:	000c0693          	mv	a3,s8
    2438:	00012503          	lw	a0,0(sp)
    243c:	000c0593          	mv	a1,s8
    2440:	31d020ef          	jal	ra,4f5c <__adddf3>
    2444:	00812603          	lw	a2,8(sp)
    2448:	00c12683          	lw	a3,12(sp)
    244c:	521030ef          	jal	ra,616c <__muldf3>
    2450:	000a0613          	mv	a2,s4
    2454:	000a8693          	mv	a3,s5
    2458:	305020ef          	jal	ra,4f5c <__adddf3>
    245c:	00050d93          	mv	s11,a0
    2460:	00058a13          	mv	s4,a1
    2464:	000c8613          	mv	a2,s9
    2468:	000c0693          	mv	a3,s8
    246c:	000c8513          	mv	a0,s9
    2470:	000c0593          	mv	a1,s8
    2474:	4f9030ef          	jal	ra,616c <__muldf3>
    2478:	00a12a23          	sw	a0,20(sp)
    247c:	00b12c23          	sw	a1,24(sp)
    2480:	00011ab7          	lui	s5,0x11
    2484:	850aa603          	lw	a2,-1968(s5) # 10850 <__clz_tab+0x1a0>
    2488:	854aa683          	lw	a3,-1964(s5)
    248c:	2d1020ef          	jal	ra,4f5c <__adddf3>
    2490:	000d8613          	mv	a2,s11
    2494:	01412823          	sw	s4,16(sp)
    2498:	000a0693          	mv	a3,s4
    249c:	2c1020ef          	jal	ra,4f5c <__adddf3>
    24a0:	00000a13          	li	s4,0
    24a4:	00058b13          	mv	s6,a1
    24a8:	000a0613          	mv	a2,s4
    24ac:	00058693          	mv	a3,a1
    24b0:	000c8513          	mv	a0,s9
    24b4:	000c0593          	mv	a1,s8
    24b8:	4b5030ef          	jal	ra,616c <__muldf3>
    24bc:	00050c13          	mv	s8,a0
    24c0:	00058c93          	mv	s9,a1
    24c4:	850aa603          	lw	a2,-1968(s5)
    24c8:	854aa683          	lw	a3,-1964(s5)
    24cc:	000a0513          	mv	a0,s4
    24d0:	000b0593          	mv	a1,s6
    24d4:	364040ef          	jal	ra,6838 <__subdf3>
    24d8:	01412603          	lw	a2,20(sp)
    24dc:	01812683          	lw	a3,24(sp)
    24e0:	358040ef          	jal	ra,6838 <__subdf3>
    24e4:	00050613          	mv	a2,a0
    24e8:	00058693          	mv	a3,a1
    24ec:	000d8513          	mv	a0,s11
    24f0:	01012583          	lw	a1,16(sp)
    24f4:	344040ef          	jal	ra,6838 <__subdf3>
    24f8:	00012603          	lw	a2,0(sp)
    24fc:	00412683          	lw	a3,4(sp)
    2500:	46d030ef          	jal	ra,616c <__muldf3>
    2504:	00050a93          	mv	s5,a0
    2508:	00058d93          	mv	s11,a1
    250c:	000a0613          	mv	a2,s4
    2510:	000b0693          	mv	a3,s6
    2514:	00812503          	lw	a0,8(sp)
    2518:	00c12583          	lw	a1,12(sp)
    251c:	451030ef          	jal	ra,616c <__muldf3>
    2520:	00050613          	mv	a2,a0
    2524:	00058693          	mv	a3,a1
    2528:	000a8513          	mv	a0,s5
    252c:	000d8593          	mv	a1,s11
    2530:	22d020ef          	jal	ra,4f5c <__adddf3>
    2534:	00050d93          	mv	s11,a0
    2538:	00058b13          	mv	s6,a1
    253c:	00050613          	mv	a2,a0
    2540:	00058693          	mv	a3,a1
    2544:	000c0513          	mv	a0,s8
    2548:	000c8593          	mv	a1,s9
    254c:	211020ef          	jal	ra,4f5c <__adddf3>
    2550:	00000a93          	li	s5,0
    2554:	00058a13          	mv	s4,a1
    2558:	000117b7          	lui	a5,0x11
    255c:	9307a603          	lw	a2,-1744(a5) # 10930 <__clz_tab+0x280>
    2560:	9347a683          	lw	a3,-1740(a5)
    2564:	000a8513          	mv	a0,s5
    2568:	000a0593          	mv	a1,s4
    256c:	401030ef          	jal	ra,616c <__muldf3>
    2570:	00a12023          	sw	a0,0(sp)
    2574:	00b12223          	sw	a1,4(sp)
    2578:	000c0613          	mv	a2,s8
    257c:	000c8693          	mv	a3,s9
    2580:	000a8513          	mv	a0,s5
    2584:	000a0593          	mv	a1,s4
    2588:	2b0040ef          	jal	ra,6838 <__subdf3>
    258c:	00050613          	mv	a2,a0
    2590:	00058693          	mv	a3,a1
    2594:	000d8513          	mv	a0,s11
    2598:	000b0593          	mv	a1,s6
    259c:	29c040ef          	jal	ra,6838 <__subdf3>
    25a0:	000117b7          	lui	a5,0x11
    25a4:	9387a603          	lw	a2,-1736(a5) # 10938 <__clz_tab+0x288>
    25a8:	93c7a683          	lw	a3,-1732(a5)
    25ac:	3c1030ef          	jal	ra,616c <__muldf3>
    25b0:	00050c13          	mv	s8,a0
    25b4:	00058b13          	mv	s6,a1
    25b8:	000117b7          	lui	a5,0x11
    25bc:	9407a603          	lw	a2,-1728(a5) # 10940 <__clz_tab+0x290>
    25c0:	9447a683          	lw	a3,-1724(a5)
    25c4:	000a8513          	mv	a0,s5
    25c8:	000a0593          	mv	a1,s4
    25cc:	3a1030ef          	jal	ra,616c <__muldf3>
    25d0:	00050613          	mv	a2,a0
    25d4:	00058693          	mv	a3,a1
    25d8:	000c0513          	mv	a0,s8
    25dc:	000b0593          	mv	a1,s6
    25e0:	17d020ef          	jal	ra,4f5c <__adddf3>
    25e4:	010ba603          	lw	a2,16(s7)
    25e8:	014ba683          	lw	a3,20(s7)
    25ec:	171020ef          	jal	ra,4f5c <__adddf3>
    25f0:	00050d93          	mv	s11,a0
    25f4:	00058a13          	mv	s4,a1
    25f8:	000d0513          	mv	a0,s10
    25fc:	2f9040ef          	jal	ra,70f4 <__floatsidf>
    2600:	00050c93          	mv	s9,a0
    2604:	00058c13          	mv	s8,a1
    2608:	020bab03          	lw	s6,32(s7)
    260c:	024bab83          	lw	s7,36(s7)
    2610:	000d8613          	mv	a2,s11
    2614:	01412423          	sw	s4,8(sp)
    2618:	000a0693          	mv	a3,s4
    261c:	00012503          	lw	a0,0(sp)
    2620:	00412d03          	lw	s10,4(sp)
    2624:	000d0593          	mv	a1,s10
    2628:	135020ef          	jal	ra,4f5c <__adddf3>
    262c:	000b0613          	mv	a2,s6
    2630:	000b8693          	mv	a3,s7
    2634:	129020ef          	jal	ra,4f5c <__adddf3>
    2638:	000c8613          	mv	a2,s9
    263c:	000c0693          	mv	a3,s8
    2640:	11d020ef          	jal	ra,4f5c <__adddf3>
    2644:	00000713          	li	a4,0
    2648:	00058793          	mv	a5,a1
    264c:	00070a13          	mv	s4,a4
    2650:	00058a93          	mv	s5,a1
    2654:	000c8613          	mv	a2,s9
    2658:	000c0693          	mv	a3,s8
    265c:	00070513          	mv	a0,a4
    2660:	00078593          	mv	a1,a5
    2664:	1d4040ef          	jal	ra,6838 <__subdf3>
    2668:	000b0613          	mv	a2,s6
    266c:	000b8693          	mv	a3,s7
    2670:	1c8040ef          	jal	ra,6838 <__subdf3>
    2674:	00012603          	lw	a2,0(sp)
    2678:	000d0693          	mv	a3,s10
    267c:	1bc040ef          	jal	ra,6838 <__subdf3>
    2680:	00050613          	mv	a2,a0
    2684:	00058693          	mv	a3,a1
    2688:	000d8513          	mv	a0,s11
    268c:	00812583          	lw	a1,8(sp)
    2690:	1a8040ef          	jal	ra,6838 <__subdf3>
    2694:	00050b93          	mv	s7,a0
    2698:	00058b13          	mv	s6,a1
    269c:	fff90793          	addi	a5,s2,-1
    26a0:	0137e7b3          	or	a5,a5,s3
    26a4:	3e079e63          	bnez	a5,2aa0 <__ieee754_pow+0xe90>
    26a8:	000117b7          	lui	a5,0x11
    26ac:	8187a903          	lw	s2,-2024(a5) # 10818 <__clz_tab+0x168>
    26b0:	81c7a983          	lw	s3,-2020(a5)
    26b4:	00000c93          	li	s9,0
    26b8:	000c8613          	mv	a2,s9
    26bc:	00048693          	mv	a3,s1
    26c0:	00040513          	mv	a0,s0
    26c4:	00048593          	mv	a1,s1
    26c8:	170040ef          	jal	ra,6838 <__subdf3>
    26cc:	000a0613          	mv	a2,s4
    26d0:	000a8693          	mv	a3,s5
    26d4:	299030ef          	jal	ra,616c <__muldf3>
    26d8:	00050d93          	mv	s11,a0
    26dc:	00058d13          	mv	s10,a1
    26e0:	00040613          	mv	a2,s0
    26e4:	00048693          	mv	a3,s1
    26e8:	000b8513          	mv	a0,s7
    26ec:	000b0593          	mv	a1,s6
    26f0:	27d030ef          	jal	ra,616c <__muldf3>
    26f4:	00050613          	mv	a2,a0
    26f8:	00058693          	mv	a3,a1
    26fc:	000d8513          	mv	a0,s11
    2700:	000d0593          	mv	a1,s10
    2704:	059020ef          	jal	ra,4f5c <__adddf3>
    2708:	00050b13          	mv	s6,a0
    270c:	00058b93          	mv	s7,a1
    2710:	000c8613          	mv	a2,s9
    2714:	00048693          	mv	a3,s1
    2718:	000a0513          	mv	a0,s4
    271c:	000a8593          	mv	a1,s5
    2720:	24d030ef          	jal	ra,616c <__muldf3>
    2724:	00050493          	mv	s1,a0
    2728:	00058a13          	mv	s4,a1
    272c:	00050613          	mv	a2,a0
    2730:	00058693          	mv	a3,a1
    2734:	000b0513          	mv	a0,s6
    2738:	000b8593          	mv	a1,s7
    273c:	021020ef          	jal	ra,4f5c <__adddf3>
    2740:	00050c13          	mv	s8,a0
    2744:	00058413          	mv	s0,a1
    2748:	00058a93          	mv	s5,a1
    274c:	409007b7          	lui	a5,0x40900
    2750:	3af5c063          	blt	a1,a5,2af0 <__ieee754_pow+0xee0>
    2754:	bf7007b7          	lui	a5,0xbf700
    2758:	00b787b3          	add	a5,a5,a1
    275c:	00a7e7b3          	or	a5,a5,a0
    2760:	34079863          	bnez	a5,2ab0 <__ieee754_pow+0xea0>
    2764:	000117b7          	lui	a5,0x11
    2768:	9487a603          	lw	a2,-1720(a5) # 10948 <__clz_tab+0x298>
    276c:	94c7a683          	lw	a3,-1716(a5)
    2770:	000b0513          	mv	a0,s6
    2774:	000b8593          	mv	a1,s7
    2778:	7e4020ef          	jal	ra,4f5c <__adddf3>
    277c:	00050d13          	mv	s10,a0
    2780:	00058c93          	mv	s9,a1
    2784:	00048613          	mv	a2,s1
    2788:	000a0693          	mv	a3,s4
    278c:	000c0513          	mv	a0,s8
    2790:	00040593          	mv	a1,s0
    2794:	0a4040ef          	jal	ra,6838 <__subdf3>
    2798:	00050613          	mv	a2,a0
    279c:	00058693          	mv	a3,a1
    27a0:	000d0513          	mv	a0,s10
    27a4:	000c8593          	mv	a1,s9
    27a8:	7fc030ef          	jal	ra,5fa4 <__gedf2>
    27ac:	32a04263          	bgtz	a0,2ad0 <__ieee754_pow+0xec0>
    27b0:	41445793          	srai	a5,s0,0x14
    27b4:	7ff7f793          	andi	a5,a5,2047
    27b8:	c0278793          	addi	a5,a5,-1022
    27bc:	001005b7          	lui	a1,0x100
    27c0:	40f5d7b3          	sra	a5,a1,a5
    27c4:	008787b3          	add	a5,a5,s0
    27c8:	4147d713          	srai	a4,a5,0x14
    27cc:	7ff77713          	andi	a4,a4,2047
    27d0:	c0170713          	addi	a4,a4,-1023 # 7fc01 <soln_cnt0+0x6f125>
    27d4:	fff006b7          	lui	a3,0xfff00
    27d8:	40e6d6b3          	sra	a3,a3,a4
    27dc:	00000813          	li	a6,0
    27e0:	00f6f533          	and	a0,a3,a5
    27e4:	00080613          	mv	a2,a6
    27e8:	00050693          	mv	a3,a0
    27ec:	fff58513          	addi	a0,a1,-1 # fffff <soln_cnt0+0xef523>
    27f0:	00a7f7b3          	and	a5,a5,a0
    27f4:	00b7e7b3          	or	a5,a5,a1
    27f8:	01400c13          	li	s8,20
    27fc:	40ec0c33          	sub	s8,s8,a4
    2800:	4187dc33          	sra	s8,a5,s8
    2804:	380ac663          	bltz	s5,2b90 <__ieee754_pow+0xf80>
    2808:	00048513          	mv	a0,s1
    280c:	000a0593          	mv	a1,s4
    2810:	028040ef          	jal	ra,6838 <__subdf3>
    2814:	00050493          	mv	s1,a0
    2818:	00058a13          	mv	s4,a1
    281c:	000b0613          	mv	a2,s6
    2820:	000b8693          	mv	a3,s7
    2824:	00048513          	mv	a0,s1
    2828:	000a0593          	mv	a1,s4
    282c:	730020ef          	jal	ra,4f5c <__adddf3>
    2830:	00000d13          	li	s10,0
    2834:	00058413          	mv	s0,a1
    2838:	000117b7          	lui	a5,0x11
    283c:	9507a603          	lw	a2,-1712(a5) # 10950 <__clz_tab+0x2a0>
    2840:	9547a683          	lw	a3,-1708(a5)
    2844:	000d0513          	mv	a0,s10
    2848:	00040593          	mv	a1,s0
    284c:	121030ef          	jal	ra,616c <__muldf3>
    2850:	00050c93          	mv	s9,a0
    2854:	00058a93          	mv	s5,a1
    2858:	00048613          	mv	a2,s1
    285c:	000a0693          	mv	a3,s4
    2860:	000d0513          	mv	a0,s10
    2864:	00040593          	mv	a1,s0
    2868:	7d1030ef          	jal	ra,6838 <__subdf3>
    286c:	00050613          	mv	a2,a0
    2870:	00058693          	mv	a3,a1
    2874:	000b0513          	mv	a0,s6
    2878:	000b8593          	mv	a1,s7
    287c:	7bd030ef          	jal	ra,6838 <__subdf3>
    2880:	000117b7          	lui	a5,0x11
    2884:	9587a603          	lw	a2,-1704(a5) # 10958 <__clz_tab+0x2a8>
    2888:	95c7a683          	lw	a3,-1700(a5)
    288c:	0e1030ef          	jal	ra,616c <__muldf3>
    2890:	00050a13          	mv	s4,a0
    2894:	00058493          	mv	s1,a1
    2898:	000117b7          	lui	a5,0x11
    289c:	9607a603          	lw	a2,-1696(a5) # 10960 <__clz_tab+0x2b0>
    28a0:	9647a683          	lw	a3,-1692(a5)
    28a4:	000d0513          	mv	a0,s10
    28a8:	00040593          	mv	a1,s0
    28ac:	0c1030ef          	jal	ra,616c <__muldf3>
    28b0:	00050613          	mv	a2,a0
    28b4:	00058693          	mv	a3,a1
    28b8:	000a0513          	mv	a0,s4
    28bc:	00048593          	mv	a1,s1
    28c0:	69c020ef          	jal	ra,4f5c <__adddf3>
    28c4:	00050b13          	mv	s6,a0
    28c8:	00058a13          	mv	s4,a1
    28cc:	00050613          	mv	a2,a0
    28d0:	00058693          	mv	a3,a1
    28d4:	000c8513          	mv	a0,s9
    28d8:	000a8593          	mv	a1,s5
    28dc:	680020ef          	jal	ra,4f5c <__adddf3>
    28e0:	00050493          	mv	s1,a0
    28e4:	00058413          	mv	s0,a1
    28e8:	000c8613          	mv	a2,s9
    28ec:	000a8693          	mv	a3,s5
    28f0:	749030ef          	jal	ra,6838 <__subdf3>
    28f4:	00050613          	mv	a2,a0
    28f8:	00058693          	mv	a3,a1
    28fc:	000b0513          	mv	a0,s6
    2900:	000a0593          	mv	a1,s4
    2904:	735030ef          	jal	ra,6838 <__subdf3>
    2908:	00050b93          	mv	s7,a0
    290c:	00058b13          	mv	s6,a1
    2910:	00048613          	mv	a2,s1
    2914:	00040693          	mv	a3,s0
    2918:	00048513          	mv	a0,s1
    291c:	00040593          	mv	a1,s0
    2920:	04d030ef          	jal	ra,616c <__muldf3>
    2924:	00050a93          	mv	s5,a0
    2928:	00058a13          	mv	s4,a1
    292c:	000117b7          	lui	a5,0x11
    2930:	9687a603          	lw	a2,-1688(a5) # 10968 <__clz_tab+0x2b8>
    2934:	96c7a683          	lw	a3,-1684(a5)
    2938:	035030ef          	jal	ra,616c <__muldf3>
    293c:	000117b7          	lui	a5,0x11
    2940:	9707a603          	lw	a2,-1680(a5) # 10970 <__clz_tab+0x2c0>
    2944:	9747a683          	lw	a3,-1676(a5)
    2948:	6f1030ef          	jal	ra,6838 <__subdf3>
    294c:	000a8613          	mv	a2,s5
    2950:	000a0693          	mv	a3,s4
    2954:	019030ef          	jal	ra,616c <__muldf3>
    2958:	000117b7          	lui	a5,0x11
    295c:	9787a603          	lw	a2,-1672(a5) # 10978 <__clz_tab+0x2c8>
    2960:	97c7a683          	lw	a3,-1668(a5)
    2964:	5f8020ef          	jal	ra,4f5c <__adddf3>
    2968:	000a8613          	mv	a2,s5
    296c:	000a0693          	mv	a3,s4
    2970:	7fc030ef          	jal	ra,616c <__muldf3>
    2974:	000117b7          	lui	a5,0x11
    2978:	9807a603          	lw	a2,-1664(a5) # 10980 <__clz_tab+0x2d0>
    297c:	9847a683          	lw	a3,-1660(a5)
    2980:	6b9030ef          	jal	ra,6838 <__subdf3>
    2984:	000a8613          	mv	a2,s5
    2988:	000a0693          	mv	a3,s4
    298c:	7e0030ef          	jal	ra,616c <__muldf3>
    2990:	000117b7          	lui	a5,0x11
    2994:	9887a603          	lw	a2,-1656(a5) # 10988 <__clz_tab+0x2d8>
    2998:	98c7a683          	lw	a3,-1652(a5)
    299c:	5c0020ef          	jal	ra,4f5c <__adddf3>
    29a0:	000a8613          	mv	a2,s5
    29a4:	000a0693          	mv	a3,s4
    29a8:	7c4030ef          	jal	ra,616c <__muldf3>
    29ac:	00050613          	mv	a2,a0
    29b0:	00058693          	mv	a3,a1
    29b4:	00048513          	mv	a0,s1
    29b8:	00040593          	mv	a1,s0
    29bc:	67d030ef          	jal	ra,6838 <__subdf3>
    29c0:	00050a93          	mv	s5,a0
    29c4:	00058a13          	mv	s4,a1
    29c8:	00050613          	mv	a2,a0
    29cc:	00058693          	mv	a3,a1
    29d0:	00048513          	mv	a0,s1
    29d4:	00040593          	mv	a1,s0
    29d8:	794030ef          	jal	ra,616c <__muldf3>
    29dc:	00050d13          	mv	s10,a0
    29e0:	00058c93          	mv	s9,a1
    29e4:	000117b7          	lui	a5,0x11
    29e8:	8307a603          	lw	a2,-2000(a5) # 10830 <__clz_tab+0x180>
    29ec:	8347a683          	lw	a3,-1996(a5)
    29f0:	000a8513          	mv	a0,s5
    29f4:	000a0593          	mv	a1,s4
    29f8:	641030ef          	jal	ra,6838 <__subdf3>
    29fc:	00050613          	mv	a2,a0
    2a00:	00058693          	mv	a3,a1
    2a04:	000d0513          	mv	a0,s10
    2a08:	000c8593          	mv	a1,s9
    2a0c:	52d020ef          	jal	ra,5738 <__divdf3>
    2a10:	00050a93          	mv	s5,a0
    2a14:	00058a13          	mv	s4,a1
    2a18:	000b8613          	mv	a2,s7
    2a1c:	000b0693          	mv	a3,s6
    2a20:	00048513          	mv	a0,s1
    2a24:	00040593          	mv	a1,s0
    2a28:	744030ef          	jal	ra,616c <__muldf3>
    2a2c:	000b8613          	mv	a2,s7
    2a30:	000b0693          	mv	a3,s6
    2a34:	528020ef          	jal	ra,4f5c <__adddf3>
    2a38:	00050613          	mv	a2,a0
    2a3c:	00058693          	mv	a3,a1
    2a40:	000a8513          	mv	a0,s5
    2a44:	000a0593          	mv	a1,s4
    2a48:	5f1030ef          	jal	ra,6838 <__subdf3>
    2a4c:	00048613          	mv	a2,s1
    2a50:	00040693          	mv	a3,s0
    2a54:	5e5030ef          	jal	ra,6838 <__subdf3>
    2a58:	00050613          	mv	a2,a0
    2a5c:	00058693          	mv	a3,a1
    2a60:	000107b7          	lui	a5,0x10
    2a64:	7c07a503          	lw	a0,1984(a5) # 107c0 <__clz_tab+0x110>
    2a68:	7c47a583          	lw	a1,1988(a5)
    2a6c:	5cd030ef          	jal	ra,6838 <__subdf3>
    2a70:	014c1693          	slli	a3,s8,0x14
    2a74:	00b686b3          	add	a3,a3,a1
    2a78:	4146d793          	srai	a5,a3,0x14
    2a7c:	10f05e63          	blez	a5,2b98 <__ieee754_pow+0xf88>
    2a80:	00050713          	mv	a4,a0
    2a84:	00068793          	mv	a5,a3
    2a88:	00090613          	mv	a2,s2
    2a8c:	00098693          	mv	a3,s3
    2a90:	00070513          	mv	a0,a4
    2a94:	00078593          	mv	a1,a5
    2a98:	6d4030ef          	jal	ra,616c <__muldf3>
    2a9c:	ad4ff06f          	j	1d70 <__ieee754_pow+0x160>
    2aa0:	000107b7          	lui	a5,0x10
    2aa4:	7c07a903          	lw	s2,1984(a5) # 107c0 <__clz_tab+0x110>
    2aa8:	7c47a983          	lw	s3,1988(a5)
    2aac:	c09ff06f          	j	26b4 <__ieee754_pow+0xaa4>
    2ab0:	00000613          	li	a2,0
    2ab4:	00000693          	li	a3,0
    2ab8:	00090513          	mv	a0,s2
    2abc:	00098593          	mv	a1,s3
    2ac0:	5c8030ef          	jal	ra,6088 <__ledf2>
    2ac4:	00052513          	slti	a0,a0,0
    2ac8:	679010ef          	jal	ra,4940 <__math_oflow>
    2acc:	aa4ff06f          	j	1d70 <__ieee754_pow+0x160>
    2ad0:	00000613          	li	a2,0
    2ad4:	00000693          	li	a3,0
    2ad8:	00090513          	mv	a0,s2
    2adc:	00098593          	mv	a1,s3
    2ae0:	5a8030ef          	jal	ra,6088 <__ledf2>
    2ae4:	00052513          	slti	a0,a0,0
    2ae8:	659010ef          	jal	ra,4940 <__math_oflow>
    2aec:	a84ff06f          	j	1d70 <__ieee754_pow+0x160>
    2af0:	00159793          	slli	a5,a1,0x1
    2af4:	0017d793          	srli	a5,a5,0x1
    2af8:	4090d737          	lui	a4,0x4090d
    2afc:	bff70713          	addi	a4,a4,-1025 # 4090cbff <soln_cnt0+0x408fc123>
    2b00:	06f75e63          	bge	a4,a5,2b7c <__ieee754_pow+0xf6c>
    2b04:	3f6f37b7          	lui	a5,0x3f6f3
    2b08:	40078793          	addi	a5,a5,1024 # 3f6f3400 <soln_cnt0+0x3f6e2924>
    2b0c:	00b787b3          	add	a5,a5,a1
    2b10:	00a7e7b3          	or	a5,a5,a0
    2b14:	04079463          	bnez	a5,2b5c <__ieee754_pow+0xf4c>
    2b18:	00048613          	mv	a2,s1
    2b1c:	000a0693          	mv	a3,s4
    2b20:	000c0513          	mv	a0,s8
    2b24:	00040593          	mv	a1,s0
    2b28:	511030ef          	jal	ra,6838 <__subdf3>
    2b2c:	000b0613          	mv	a2,s6
    2b30:	000b8693          	mv	a3,s7
    2b34:	470030ef          	jal	ra,5fa4 <__gedf2>
    2b38:	c6054ce3          	bltz	a0,27b0 <__ieee754_pow+0xba0>
    2b3c:	00000613          	li	a2,0
    2b40:	00000693          	li	a3,0
    2b44:	00090513          	mv	a0,s2
    2b48:	00098593          	mv	a1,s3
    2b4c:	53c030ef          	jal	ra,6088 <__ledf2>
    2b50:	00052513          	slti	a0,a0,0
    2b54:	5a5010ef          	jal	ra,48f8 <__math_uflow>
    2b58:	a18ff06f          	j	1d70 <__ieee754_pow+0x160>
    2b5c:	00000613          	li	a2,0
    2b60:	00000693          	li	a3,0
    2b64:	00090513          	mv	a0,s2
    2b68:	00098593          	mv	a1,s3
    2b6c:	51c030ef          	jal	ra,6088 <__ledf2>
    2b70:	00052513          	slti	a0,a0,0
    2b74:	585010ef          	jal	ra,48f8 <__math_uflow>
    2b78:	9f8ff06f          	j	1d70 <__ieee754_pow+0x160>
    2b7c:	3fe00737          	lui	a4,0x3fe00
    2b80:	00000c13          	li	s8,0
    2b84:	c8f75ce3          	bge	a4,a5,281c <__ieee754_pow+0xc0c>
    2b88:	4147d793          	srai	a5,a5,0x14
    2b8c:	c2dff06f          	j	27b8 <__ieee754_pow+0xba8>
    2b90:	41800c33          	neg	s8,s8
    2b94:	c75ff06f          	j	2808 <__ieee754_pow+0xbf8>
    2b98:	000c0613          	mv	a2,s8
    2b9c:	1d4020ef          	jal	ra,4d70 <scalbn>
    2ba0:	00050713          	mv	a4,a0
    2ba4:	00058793          	mv	a5,a1
    2ba8:	ee1ff06f          	j	2a88 <__ieee754_pow+0xe78>
    2bac:	00000513          	li	a0,0
    2bb0:	000107b7          	lui	a5,0x10
    2bb4:	7c47a583          	lw	a1,1988(a5) # 107c4 <__clz_tab+0x114>
    2bb8:	9b8ff06f          	j	1d70 <__ieee754_pow+0x160>
    2bbc:	00000513          	li	a0,0
    2bc0:	000107b7          	lui	a5,0x10
    2bc4:	7c47a583          	lw	a1,1988(a5) # 107c4 <__clz_tab+0x114>
    2bc8:	9a8ff06f          	j	1d70 <__ieee754_pow+0x160>
    2bcc:	00000913          	li	s2,0
    2bd0:	00071463          	bnez	a4,2bd8 <__ieee754_pow+0xfc8>
    2bd4:	920ff06f          	j	1cf4 <__ieee754_pow+0xe4>
    2bd8:	934ff06f          	j	1d0c <__ieee754_pow+0xfc>
    2bdc:	000a8513          	mv	a0,s5
    2be0:	000a0593          	mv	a1,s4
    2be4:	765010ef          	jal	ra,4b48 <fabs>
    2be8:	b2098c63          	beqz	s3,1f20 <__ieee754_pow+0x310>
    2bec:	000a8613          	mv	a2,s5
    2bf0:	000a0693          	mv	a3,s4
    2bf4:	000a8513          	mv	a0,s5
    2bf8:	000a0593          	mv	a1,s4
    2bfc:	43d030ef          	jal	ra,6838 <__subdf3>
    2c00:	00050613          	mv	a2,a0
    2c04:	00058693          	mv	a3,a1
    2c08:	331020ef          	jal	ra,5738 <__divdf3>
    2c0c:	964ff06f          	j	1d70 <__ieee754_pow+0x160>

00002c10 <__ieee754_rem_pio2>:
    2c10:	fa010113          	addi	sp,sp,-96
    2c14:	04112e23          	sw	ra,92(sp)
    2c18:	04812c23          	sw	s0,88(sp)
    2c1c:	04912a23          	sw	s1,84(sp)
    2c20:	05212823          	sw	s2,80(sp)
    2c24:	05312623          	sw	s3,76(sp)
    2c28:	05412423          	sw	s4,72(sp)
    2c2c:	05512223          	sw	s5,68(sp)
    2c30:	05612023          	sw	s6,64(sp)
    2c34:	03712e23          	sw	s7,60(sp)
    2c38:	03812c23          	sw	s8,56(sp)
    2c3c:	03912a23          	sw	s9,52(sp)
    2c40:	03a12823          	sw	s10,48(sp)
    2c44:	03b12623          	sw	s11,44(sp)
    2c48:	00060493          	mv	s1,a2
    2c4c:	00159413          	slli	s0,a1,0x1
    2c50:	00145413          	srli	s0,s0,0x1
    2c54:	3fe927b7          	lui	a5,0x3fe92
    2c58:	1fb78793          	addi	a5,a5,507 # 3fe921fb <soln_cnt0+0x3fe8171f>
    2c5c:	0887d663          	bge	a5,s0,2ce8 <__ieee754_rem_pio2+0xd8>
    2c60:	00058993          	mv	s3,a1
    2c64:	4002e7b7          	lui	a5,0x4002e
    2c68:	97b78793          	addi	a5,a5,-1669 # 4002d97b <soln_cnt0+0x4001ce9f>
    2c6c:	2087ca63          	blt	a5,s0,2e80 <__ieee754_rem_pio2+0x270>
    2c70:	12b05a63          	blez	a1,2da4 <__ieee754_rem_pio2+0x194>
    2c74:	000117b7          	lui	a5,0x11
    2c78:	9907a603          	lw	a2,-1648(a5) # 10990 <__clz_tab+0x2e0>
    2c7c:	9947a683          	lw	a3,-1644(a5)
    2c80:	3b9030ef          	jal	ra,6838 <__subdf3>
    2c84:	00050993          	mv	s3,a0
    2c88:	00058913          	mv	s2,a1
    2c8c:	3ff927b7          	lui	a5,0x3ff92
    2c90:	1fb78793          	addi	a5,a5,507 # 3ff921fb <soln_cnt0+0x3ff8171f>
    2c94:	0af40463          	beq	s0,a5,2d3c <__ieee754_rem_pio2+0x12c>
    2c98:	00011437          	lui	s0,0x11
    2c9c:	99842603          	lw	a2,-1640(s0) # 10998 <__clz_tab+0x2e8>
    2ca0:	99c42683          	lw	a3,-1636(s0)
    2ca4:	00098513          	mv	a0,s3
    2ca8:	00090593          	mv	a1,s2
    2cac:	38d030ef          	jal	ra,6838 <__subdf3>
    2cb0:	00a4a023          	sw	a0,0(s1) # 80000000 <soln_cnt0+0x7ffef524>
    2cb4:	00b4a223          	sw	a1,4(s1)
    2cb8:	00050613          	mv	a2,a0
    2cbc:	00058693          	mv	a3,a1
    2cc0:	00098513          	mv	a0,s3
    2cc4:	00090593          	mv	a1,s2
    2cc8:	371030ef          	jal	ra,6838 <__subdf3>
    2ccc:	99842603          	lw	a2,-1640(s0)
    2cd0:	99c42683          	lw	a3,-1636(s0)
    2cd4:	365030ef          	jal	ra,6838 <__subdf3>
    2cd8:	00a4a423          	sw	a0,8(s1)
    2cdc:	00b4a623          	sw	a1,12(s1)
    2ce0:	00100913          	li	s2,1
    2ce4:	0180006f          	j	2cfc <__ieee754_rem_pio2+0xec>
    2ce8:	00a4a023          	sw	a0,0(s1)
    2cec:	00b4a223          	sw	a1,4(s1)
    2cf0:	0004a423          	sw	zero,8(s1)
    2cf4:	0004a623          	sw	zero,12(s1)
    2cf8:	00000913          	li	s2,0
    2cfc:	00090513          	mv	a0,s2
    2d00:	05c12083          	lw	ra,92(sp)
    2d04:	05812403          	lw	s0,88(sp)
    2d08:	05412483          	lw	s1,84(sp)
    2d0c:	05012903          	lw	s2,80(sp)
    2d10:	04c12983          	lw	s3,76(sp)
    2d14:	04812a03          	lw	s4,72(sp)
    2d18:	04412a83          	lw	s5,68(sp)
    2d1c:	04012b03          	lw	s6,64(sp)
    2d20:	03c12b83          	lw	s7,60(sp)
    2d24:	03812c03          	lw	s8,56(sp)
    2d28:	03412c83          	lw	s9,52(sp)
    2d2c:	03012d03          	lw	s10,48(sp)
    2d30:	02c12d83          	lw	s11,44(sp)
    2d34:	06010113          	addi	sp,sp,96
    2d38:	00008067          	ret
    2d3c:	000117b7          	lui	a5,0x11
    2d40:	9a07a603          	lw	a2,-1632(a5) # 109a0 <__clz_tab+0x2f0>
    2d44:	9a47a683          	lw	a3,-1628(a5)
    2d48:	00098513          	mv	a0,s3
    2d4c:	00090593          	mv	a1,s2
    2d50:	2e9030ef          	jal	ra,6838 <__subdf3>
    2d54:	00050913          	mv	s2,a0
    2d58:	00058413          	mv	s0,a1
    2d5c:	000119b7          	lui	s3,0x11
    2d60:	9a89a603          	lw	a2,-1624(s3) # 109a8 <__clz_tab+0x2f8>
    2d64:	9ac9a683          	lw	a3,-1620(s3)
    2d68:	2d1030ef          	jal	ra,6838 <__subdf3>
    2d6c:	00a4a023          	sw	a0,0(s1)
    2d70:	00b4a223          	sw	a1,4(s1)
    2d74:	00050613          	mv	a2,a0
    2d78:	00058693          	mv	a3,a1
    2d7c:	00090513          	mv	a0,s2
    2d80:	00040593          	mv	a1,s0
    2d84:	2b5030ef          	jal	ra,6838 <__subdf3>
    2d88:	9a89a603          	lw	a2,-1624(s3)
    2d8c:	9ac9a683          	lw	a3,-1620(s3)
    2d90:	2a9030ef          	jal	ra,6838 <__subdf3>
    2d94:	00a4a423          	sw	a0,8(s1)
    2d98:	00b4a623          	sw	a1,12(s1)
    2d9c:	00100913          	li	s2,1
    2da0:	f5dff06f          	j	2cfc <__ieee754_rem_pio2+0xec>
    2da4:	000117b7          	lui	a5,0x11
    2da8:	9907a603          	lw	a2,-1648(a5) # 10990 <__clz_tab+0x2e0>
    2dac:	9947a683          	lw	a3,-1644(a5)
    2db0:	1ac020ef          	jal	ra,4f5c <__adddf3>
    2db4:	00050993          	mv	s3,a0
    2db8:	00058913          	mv	s2,a1
    2dbc:	3ff927b7          	lui	a5,0x3ff92
    2dc0:	1fb78793          	addi	a5,a5,507 # 3ff921fb <soln_cnt0+0x3ff8171f>
    2dc4:	04f40a63          	beq	s0,a5,2e18 <__ieee754_rem_pio2+0x208>
    2dc8:	00011437          	lui	s0,0x11
    2dcc:	99842603          	lw	a2,-1640(s0) # 10998 <__clz_tab+0x2e8>
    2dd0:	99c42683          	lw	a3,-1636(s0)
    2dd4:	00098513          	mv	a0,s3
    2dd8:	00090593          	mv	a1,s2
    2ddc:	180020ef          	jal	ra,4f5c <__adddf3>
    2de0:	00a4a023          	sw	a0,0(s1)
    2de4:	00b4a223          	sw	a1,4(s1)
    2de8:	00050613          	mv	a2,a0
    2dec:	00058693          	mv	a3,a1
    2df0:	00098513          	mv	a0,s3
    2df4:	00090593          	mv	a1,s2
    2df8:	241030ef          	jal	ra,6838 <__subdf3>
    2dfc:	99842603          	lw	a2,-1640(s0)
    2e00:	99c42683          	lw	a3,-1636(s0)
    2e04:	158020ef          	jal	ra,4f5c <__adddf3>
    2e08:	00a4a423          	sw	a0,8(s1)
    2e0c:	00b4a623          	sw	a1,12(s1)
    2e10:	fff00913          	li	s2,-1
    2e14:	ee9ff06f          	j	2cfc <__ieee754_rem_pio2+0xec>
    2e18:	000117b7          	lui	a5,0x11
    2e1c:	9a07a603          	lw	a2,-1632(a5) # 109a0 <__clz_tab+0x2f0>
    2e20:	9a47a683          	lw	a3,-1628(a5)
    2e24:	00098513          	mv	a0,s3
    2e28:	00090593          	mv	a1,s2
    2e2c:	130020ef          	jal	ra,4f5c <__adddf3>
    2e30:	00050913          	mv	s2,a0
    2e34:	00058413          	mv	s0,a1
    2e38:	000119b7          	lui	s3,0x11
    2e3c:	9a89a603          	lw	a2,-1624(s3) # 109a8 <__clz_tab+0x2f8>
    2e40:	9ac9a683          	lw	a3,-1620(s3)
    2e44:	118020ef          	jal	ra,4f5c <__adddf3>
    2e48:	00a4a023          	sw	a0,0(s1)
    2e4c:	00b4a223          	sw	a1,4(s1)
    2e50:	00050613          	mv	a2,a0
    2e54:	00058693          	mv	a3,a1
    2e58:	00090513          	mv	a0,s2
    2e5c:	00040593          	mv	a1,s0
    2e60:	1d9030ef          	jal	ra,6838 <__subdf3>
    2e64:	9a89a603          	lw	a2,-1624(s3)
    2e68:	9ac9a683          	lw	a3,-1620(s3)
    2e6c:	0f0020ef          	jal	ra,4f5c <__adddf3>
    2e70:	00a4a423          	sw	a0,8(s1)
    2e74:	00b4a623          	sw	a1,12(s1)
    2e78:	fff00913          	li	s2,-1
    2e7c:	e81ff06f          	j	2cfc <__ieee754_rem_pio2+0xec>
    2e80:	413927b7          	lui	a5,0x41392
    2e84:	1fb78793          	addi	a5,a5,507 # 413921fb <soln_cnt0+0x4138171f>
    2e88:	1087dc63          	bge	a5,s0,2fa0 <__ieee754_rem_pio2+0x390>
    2e8c:	7ff007b7          	lui	a5,0x7ff00
    2e90:	3ef45063          	bge	s0,a5,3270 <__ieee754_rem_pio2+0x660>
    2e94:	00050793          	mv	a5,a0
    2e98:	41445a13          	srai	s4,s0,0x14
    2e9c:	beaa0a13          	addi	s4,s4,-1046
    2ea0:	014a1713          	slli	a4,s4,0x14
    2ea4:	00050a93          	mv	s5,a0
    2ea8:	40e40933          	sub	s2,s0,a4
    2eac:	00078513          	mv	a0,a5
    2eb0:	00090593          	mv	a1,s2
    2eb4:	1c0040ef          	jal	ra,7074 <__fixdfsi>
    2eb8:	23c040ef          	jal	ra,70f4 <__floatsidf>
    2ebc:	00a12423          	sw	a0,8(sp)
    2ec0:	00b12623          	sw	a1,12(sp)
    2ec4:	00050613          	mv	a2,a0
    2ec8:	00058693          	mv	a3,a1
    2ecc:	000a8513          	mv	a0,s5
    2ed0:	00090593          	mv	a1,s2
    2ed4:	165030ef          	jal	ra,6838 <__subdf3>
    2ed8:	00011ab7          	lui	s5,0x11
    2edc:	9c8aa603          	lw	a2,-1592(s5) # 109c8 <__clz_tab+0x318>
    2ee0:	9ccaa683          	lw	a3,-1588(s5)
    2ee4:	288030ef          	jal	ra,616c <__muldf3>
    2ee8:	00050913          	mv	s2,a0
    2eec:	00058413          	mv	s0,a1
    2ef0:	184040ef          	jal	ra,7074 <__fixdfsi>
    2ef4:	200040ef          	jal	ra,70f4 <__floatsidf>
    2ef8:	00a12823          	sw	a0,16(sp)
    2efc:	00b12a23          	sw	a1,20(sp)
    2f00:	00050613          	mv	a2,a0
    2f04:	00058693          	mv	a3,a1
    2f08:	00090513          	mv	a0,s2
    2f0c:	00040593          	mv	a1,s0
    2f10:	129030ef          	jal	ra,6838 <__subdf3>
    2f14:	9c8aa603          	lw	a2,-1592(s5)
    2f18:	9ccaa683          	lw	a3,-1588(s5)
    2f1c:	250030ef          	jal	ra,616c <__muldf3>
    2f20:	00a12c23          	sw	a0,24(sp)
    2f24:	00b12e23          	sw	a1,28(sp)
    2f28:	00810913          	addi	s2,sp,8
    2f2c:	00300413          	li	s0,3
    2f30:	00040a93          	mv	s5,s0
    2f34:	fff40413          	addi	s0,s0,-1
    2f38:	ff890913          	addi	s2,s2,-8
    2f3c:	00000613          	li	a2,0
    2f40:	00000693          	li	a3,0
    2f44:	01892503          	lw	a0,24(s2)
    2f48:	01c92583          	lw	a1,28(s2)
    2f4c:	7cd020ef          	jal	ra,5f18 <__eqdf2>
    2f50:	fe0500e3          	beqz	a0,2f30 <__ieee754_rem_pio2+0x320>
    2f54:	000107b7          	lui	a5,0x10
    2f58:	4e078793          	addi	a5,a5,1248 # 104e0 <two_over_pi>
    2f5c:	00200713          	li	a4,2
    2f60:	000a8693          	mv	a3,s5
    2f64:	000a0613          	mv	a2,s4
    2f68:	00048593          	mv	a1,s1
    2f6c:	00810513          	addi	a0,sp,8
    2f70:	179000ef          	jal	ra,38e8 <__kernel_rem_pio2>
    2f74:	00050913          	mv	s2,a0
    2f78:	d809d2e3          	bgez	s3,2cfc <__ieee754_rem_pio2+0xec>
    2f7c:	800006b7          	lui	a3,0x80000
    2f80:	0044a603          	lw	a2,4(s1)
    2f84:	00d647b3          	xor	a5,a2,a3
    2f88:	00f4a223          	sw	a5,4(s1)
    2f8c:	00c4a603          	lw	a2,12(s1)
    2f90:	00d647b3          	xor	a5,a2,a3
    2f94:	00f4a623          	sw	a5,12(s1)
    2f98:	40a00933          	neg	s2,a0
    2f9c:	d61ff06f          	j	2cfc <__ieee754_rem_pio2+0xec>
    2fa0:	3a9010ef          	jal	ra,4b48 <fabs>
    2fa4:	00050a93          	mv	s5,a0
    2fa8:	00058a13          	mv	s4,a1
    2fac:	000117b7          	lui	a5,0x11
    2fb0:	9b07a603          	lw	a2,-1616(a5) # 109b0 <__clz_tab+0x300>
    2fb4:	9b47a683          	lw	a3,-1612(a5)
    2fb8:	1b4030ef          	jal	ra,616c <__muldf3>
    2fbc:	000117b7          	lui	a5,0x11
    2fc0:	8287a603          	lw	a2,-2008(a5) # 10828 <__clz_tab+0x178>
    2fc4:	82c7a683          	lw	a3,-2004(a5)
    2fc8:	795010ef          	jal	ra,4f5c <__adddf3>
    2fcc:	0a8040ef          	jal	ra,7074 <__fixdfsi>
    2fd0:	00050913          	mv	s2,a0
    2fd4:	120040ef          	jal	ra,70f4 <__floatsidf>
    2fd8:	00050c93          	mv	s9,a0
    2fdc:	00058c13          	mv	s8,a1
    2fe0:	000117b7          	lui	a5,0x11
    2fe4:	9907a603          	lw	a2,-1648(a5) # 10990 <__clz_tab+0x2e0>
    2fe8:	9947a683          	lw	a3,-1644(a5)
    2fec:	180030ef          	jal	ra,616c <__muldf3>
    2ff0:	00050613          	mv	a2,a0
    2ff4:	00058693          	mv	a3,a1
    2ff8:	000a8513          	mv	a0,s5
    2ffc:	000a0593          	mv	a1,s4
    3000:	039030ef          	jal	ra,6838 <__subdf3>
    3004:	00050b93          	mv	s7,a0
    3008:	00058b13          	mv	s6,a1
    300c:	000117b7          	lui	a5,0x11
    3010:	9987a603          	lw	a2,-1640(a5) # 10998 <__clz_tab+0x2e8>
    3014:	99c7a683          	lw	a3,-1636(a5)
    3018:	000c8513          	mv	a0,s9
    301c:	000c0593          	mv	a1,s8
    3020:	14c030ef          	jal	ra,616c <__muldf3>
    3024:	00050a93          	mv	s5,a0
    3028:	00058a13          	mv	s4,a1
    302c:	01f00793          	li	a5,31
    3030:	0527c063          	blt	a5,s2,3070 <__ieee754_rem_pio2+0x460>
    3034:	fff90713          	addi	a4,s2,-1
    3038:	00271713          	slli	a4,a4,0x2
    303c:	000107b7          	lui	a5,0x10
    3040:	46078793          	addi	a5,a5,1120 # 10460 <npio2_hw>
    3044:	00e787b3          	add	a5,a5,a4
    3048:	0007a783          	lw	a5,0(a5)
    304c:	02878263          	beq	a5,s0,3070 <__ieee754_rem_pio2+0x460>
    3050:	00050613          	mv	a2,a0
    3054:	00058693          	mv	a3,a1
    3058:	000b8513          	mv	a0,s7
    305c:	000b0593          	mv	a1,s6
    3060:	7d8030ef          	jal	ra,6838 <__subdf3>
    3064:	00a4a023          	sw	a0,0(s1)
    3068:	00b4a223          	sw	a1,4(s1)
    306c:	0380006f          	j	30a4 <__ieee754_rem_pio2+0x494>
    3070:	000a8613          	mv	a2,s5
    3074:	000a0693          	mv	a3,s4
    3078:	000b8513          	mv	a0,s7
    307c:	000b0593          	mv	a1,s6
    3080:	7b8030ef          	jal	ra,6838 <__subdf3>
    3084:	41445413          	srai	s0,s0,0x14
    3088:	0145d793          	srli	a5,a1,0x14
    308c:	7ff7f793          	andi	a5,a5,2047
    3090:	40f407b3          	sub	a5,s0,a5
    3094:	01000713          	li	a4,16
    3098:	04f74e63          	blt	a4,a5,30f4 <__ieee754_rem_pio2+0x4e4>
    309c:	00a4a023          	sw	a0,0(s1)
    30a0:	00b4a223          	sw	a1,4(s1)
    30a4:	0004ac03          	lw	s8,0(s1)
    30a8:	0044a403          	lw	s0,4(s1)
    30ac:	000c0613          	mv	a2,s8
    30b0:	00040693          	mv	a3,s0
    30b4:	000b8513          	mv	a0,s7
    30b8:	000b0593          	mv	a1,s6
    30bc:	77c030ef          	jal	ra,6838 <__subdf3>
    30c0:	000a8613          	mv	a2,s5
    30c4:	000a0693          	mv	a3,s4
    30c8:	770030ef          	jal	ra,6838 <__subdf3>
    30cc:	00a4a423          	sw	a0,8(s1)
    30d0:	00b4a623          	sw	a1,12(s1)
    30d4:	c209d4e3          	bgez	s3,2cfc <__ieee754_rem_pio2+0xec>
    30d8:	800007b7          	lui	a5,0x80000
    30dc:	0087c433          	xor	s0,a5,s0
    30e0:	0084a223          	sw	s0,4(s1)
    30e4:	00b7c7b3          	xor	a5,a5,a1
    30e8:	00f4a623          	sw	a5,12(s1)
    30ec:	41200933          	neg	s2,s2
    30f0:	c0dff06f          	j	2cfc <__ieee754_rem_pio2+0xec>
    30f4:	000117b7          	lui	a5,0x11
    30f8:	9a07a603          	lw	a2,-1632(a5) # 109a0 <__clz_tab+0x2f0>
    30fc:	9a47a683          	lw	a3,-1628(a5)
    3100:	000c8513          	mv	a0,s9
    3104:	000c0593          	mv	a1,s8
    3108:	064030ef          	jal	ra,616c <__muldf3>
    310c:	00050a93          	mv	s5,a0
    3110:	00058a13          	mv	s4,a1
    3114:	00050613          	mv	a2,a0
    3118:	00058693          	mv	a3,a1
    311c:	000b8513          	mv	a0,s7
    3120:	000b0593          	mv	a1,s6
    3124:	714030ef          	jal	ra,6838 <__subdf3>
    3128:	00050d93          	mv	s11,a0
    312c:	00058d13          	mv	s10,a1
    3130:	00050613          	mv	a2,a0
    3134:	00058693          	mv	a3,a1
    3138:	000b8513          	mv	a0,s7
    313c:	000b0593          	mv	a1,s6
    3140:	6f8030ef          	jal	ra,6838 <__subdf3>
    3144:	000a8613          	mv	a2,s5
    3148:	000a0693          	mv	a3,s4
    314c:	6ec030ef          	jal	ra,6838 <__subdf3>
    3150:	00050a93          	mv	s5,a0
    3154:	00058a13          	mv	s4,a1
    3158:	000117b7          	lui	a5,0x11
    315c:	9a87a603          	lw	a2,-1624(a5) # 109a8 <__clz_tab+0x2f8>
    3160:	9ac7a683          	lw	a3,-1620(a5)
    3164:	000c8513          	mv	a0,s9
    3168:	000c0593          	mv	a1,s8
    316c:	000030ef          	jal	ra,616c <__muldf3>
    3170:	000a8613          	mv	a2,s5
    3174:	000a0693          	mv	a3,s4
    3178:	6c0030ef          	jal	ra,6838 <__subdf3>
    317c:	00050a93          	mv	s5,a0
    3180:	00058a13          	mv	s4,a1
    3184:	00050613          	mv	a2,a0
    3188:	00058693          	mv	a3,a1
    318c:	000d8513          	mv	a0,s11
    3190:	000d0593          	mv	a1,s10
    3194:	6a4030ef          	jal	ra,6838 <__subdf3>
    3198:	0145d793          	srli	a5,a1,0x14
    319c:	7ff7f793          	andi	a5,a5,2047
    31a0:	40f40433          	sub	s0,s0,a5
    31a4:	03100793          	li	a5,49
    31a8:	0087cc63          	blt	a5,s0,31c0 <__ieee754_rem_pio2+0x5b0>
    31ac:	00a4a023          	sw	a0,0(s1)
    31b0:	00b4a223          	sw	a1,4(s1)
    31b4:	000d8b93          	mv	s7,s11
    31b8:	000d0b13          	mv	s6,s10
    31bc:	ee9ff06f          	j	30a4 <__ieee754_rem_pio2+0x494>
    31c0:	000117b7          	lui	a5,0x11
    31c4:	9b87a603          	lw	a2,-1608(a5) # 109b8 <__clz_tab+0x308>
    31c8:	9bc7a683          	lw	a3,-1604(a5)
    31cc:	000c8513          	mv	a0,s9
    31d0:	000c0593          	mv	a1,s8
    31d4:	799020ef          	jal	ra,616c <__muldf3>
    31d8:	00050a13          	mv	s4,a0
    31dc:	00058413          	mv	s0,a1
    31e0:	00050613          	mv	a2,a0
    31e4:	00058693          	mv	a3,a1
    31e8:	000d8513          	mv	a0,s11
    31ec:	000d0593          	mv	a1,s10
    31f0:	648030ef          	jal	ra,6838 <__subdf3>
    31f4:	00050b93          	mv	s7,a0
    31f8:	00058b13          	mv	s6,a1
    31fc:	00050613          	mv	a2,a0
    3200:	00058693          	mv	a3,a1
    3204:	000d8513          	mv	a0,s11
    3208:	000d0593          	mv	a1,s10
    320c:	62c030ef          	jal	ra,6838 <__subdf3>
    3210:	000a0613          	mv	a2,s4
    3214:	00040693          	mv	a3,s0
    3218:	620030ef          	jal	ra,6838 <__subdf3>
    321c:	00050a13          	mv	s4,a0
    3220:	00058413          	mv	s0,a1
    3224:	000117b7          	lui	a5,0x11
    3228:	9c07a603          	lw	a2,-1600(a5) # 109c0 <__clz_tab+0x310>
    322c:	9c47a683          	lw	a3,-1596(a5)
    3230:	000c8513          	mv	a0,s9
    3234:	000c0593          	mv	a1,s8
    3238:	735020ef          	jal	ra,616c <__muldf3>
    323c:	000a0613          	mv	a2,s4
    3240:	00040693          	mv	a3,s0
    3244:	5f4030ef          	jal	ra,6838 <__subdf3>
    3248:	00050a93          	mv	s5,a0
    324c:	00058a13          	mv	s4,a1
    3250:	00050613          	mv	a2,a0
    3254:	00058693          	mv	a3,a1
    3258:	000b8513          	mv	a0,s7
    325c:	000b0593          	mv	a1,s6
    3260:	5d8030ef          	jal	ra,6838 <__subdf3>
    3264:	00a4a023          	sw	a0,0(s1)
    3268:	00b4a223          	sw	a1,4(s1)
    326c:	e39ff06f          	j	30a4 <__ieee754_rem_pio2+0x494>
    3270:	00050613          	mv	a2,a0
    3274:	00058693          	mv	a3,a1
    3278:	5c0030ef          	jal	ra,6838 <__subdf3>
    327c:	00a4a423          	sw	a0,8(s1)
    3280:	00b4a623          	sw	a1,12(s1)
    3284:	00a4a023          	sw	a0,0(s1)
    3288:	00b4a223          	sw	a1,4(s1)
    328c:	00000913          	li	s2,0
    3290:	a6dff06f          	j	2cfc <__ieee754_rem_pio2+0xec>

00003294 <__ieee754_sqrt>:
    3294:	ff010113          	addi	sp,sp,-16
    3298:	00112623          	sw	ra,12(sp)
    329c:	00812423          	sw	s0,8(sp)
    32a0:	00912223          	sw	s1,4(sp)
    32a4:	00050493          	mv	s1,a0
    32a8:	00058413          	mv	s0,a1
    32ac:	7ff006b7          	lui	a3,0x7ff00
    32b0:	00b6f633          	and	a2,a3,a1
    32b4:	06d60663          	beq	a2,a3,3320 <__ieee754_sqrt+0x8c>
    32b8:	00058793          	mv	a5,a1
    32bc:	00050713          	mv	a4,a0
    32c0:	08b05463          	blez	a1,3348 <__ieee754_sqrt+0xb4>
    32c4:	4145de93          	srai	t4,a1,0x14
    32c8:	120e8063          	beqz	t4,33e8 <__ieee754_sqrt+0x154>
    32cc:	c01e8e93          	addi	t4,t4,-1023
    32d0:	001006b7          	lui	a3,0x100
    32d4:	fff68613          	addi	a2,a3,-1 # fffff <soln_cnt0+0xef523>
    32d8:	00c7f7b3          	and	a5,a5,a2
    32dc:	00d7e6b3          	or	a3,a5,a3
    32e0:	001ef793          	andi	a5,t4,1
    32e4:	00078a63          	beqz	a5,32f8 <__ieee754_sqrt+0x64>
    32e8:	01f75793          	srli	a5,a4,0x1f
    32ec:	00169693          	slli	a3,a3,0x1
    32f0:	00d786b3          	add	a3,a5,a3
    32f4:	00171713          	slli	a4,a4,0x1
    32f8:	401ede93          	srai	t4,t4,0x1
    32fc:	01f75793          	srli	a5,a4,0x1f
    3300:	00169693          	slli	a3,a3,0x1
    3304:	00d787b3          	add	a5,a5,a3
    3308:	00171713          	slli	a4,a4,0x1
    330c:	01600593          	li	a1,22
    3310:	00000e13          	li	t3,0
    3314:	00000693          	li	a3,0
    3318:	00200637          	lui	a2,0x200
    331c:	0f80006f          	j	3414 <__ieee754_sqrt+0x180>
    3320:	00050613          	mv	a2,a0
    3324:	00058693          	mv	a3,a1
    3328:	00048513          	mv	a0,s1
    332c:	00040593          	mv	a1,s0
    3330:	63d020ef          	jal	ra,616c <__muldf3>
    3334:	00048613          	mv	a2,s1
    3338:	00040693          	mv	a3,s0
    333c:	421010ef          	jal	ra,4f5c <__adddf3>
    3340:	00050693          	mv	a3,a0
    3344:	1b00006f          	j	34f4 <__ieee754_sqrt+0x260>
    3348:	00159613          	slli	a2,a1,0x1
    334c:	00165613          	srli	a2,a2,0x1
    3350:	00a66633          	or	a2,a2,a0
    3354:	00050693          	mv	a3,a0
    3358:	18060e63          	beqz	a2,34f4 <__ieee754_sqrt+0x260>
    335c:	0605c263          	bltz	a1,33c0 <__ieee754_sqrt+0x12c>
    3360:	4145de93          	srai	t4,a1,0x14
    3364:	f60e94e3          	bnez	t4,32cc <__ieee754_sqrt+0x38>
    3368:	02059063          	bnez	a1,3388 <__ieee754_sqrt+0xf4>
    336c:	00058e93          	mv	t4,a1
    3370:	febe8e93          	addi	t4,t4,-21
    3374:	00b75793          	srli	a5,a4,0xb
    3378:	01571713          	slli	a4,a4,0x15
    337c:	fe078ae3          	beqz	a5,3370 <__ieee754_sqrt+0xdc>
    3380:	0147d693          	srli	a3,a5,0x14
    3384:	06069663          	bnez	a3,33f0 <__ieee754_sqrt+0x15c>
    3388:	00000593          	li	a1,0
    338c:	00100637          	lui	a2,0x100
    3390:	00179793          	slli	a5,a5,0x1
    3394:	00158593          	addi	a1,a1,1
    3398:	00c7f6b3          	and	a3,a5,a2
    339c:	fe068ae3          	beqz	a3,3390 <__ieee754_sqrt+0xfc>
    33a0:	fff58693          	addi	a3,a1,-1
    33a4:	40de8eb3          	sub	t4,t4,a3
    33a8:	02000693          	li	a3,32
    33ac:	40b686b3          	sub	a3,a3,a1
    33b0:	00d756b3          	srl	a3,a4,a3
    33b4:	00f6e7b3          	or	a5,a3,a5
    33b8:	00b71733          	sll	a4,a4,a1
    33bc:	f11ff06f          	j	32cc <__ieee754_sqrt+0x38>
    33c0:	00050613          	mv	a2,a0
    33c4:	00058693          	mv	a3,a1
    33c8:	00048513          	mv	a0,s1
    33cc:	00040593          	mv	a1,s0
    33d0:	468030ef          	jal	ra,6838 <__subdf3>
    33d4:	00050613          	mv	a2,a0
    33d8:	00058693          	mv	a3,a1
    33dc:	35c020ef          	jal	ra,5738 <__divdf3>
    33e0:	00050693          	mv	a3,a0
    33e4:	1100006f          	j	34f4 <__ieee754_sqrt+0x260>
    33e8:	00040793          	mv	a5,s0
    33ec:	f9dff06f          	j	3388 <__ieee754_sqrt+0xf4>
    33f0:	00040593          	mv	a1,s0
    33f4:	fadff06f          	j	33a0 <__ieee754_sqrt+0x10c>
    33f8:	01f75513          	srli	a0,a4,0x1f
    33fc:	00179793          	slli	a5,a5,0x1
    3400:	00f507b3          	add	a5,a0,a5
    3404:	00171713          	slli	a4,a4,0x1
    3408:	00165613          	srli	a2,a2,0x1
    340c:	fff58593          	addi	a1,a1,-1
    3410:	00058e63          	beqz	a1,342c <__ieee754_sqrt+0x198>
    3414:	00c68533          	add	a0,a3,a2
    3418:	fea7c0e3          	blt	a5,a0,33f8 <__ieee754_sqrt+0x164>
    341c:	00c506b3          	add	a3,a0,a2
    3420:	40a787b3          	sub	a5,a5,a0
    3424:	00ce0e33          	add	t3,t3,a2
    3428:	fd1ff06f          	j	33f8 <__ieee754_sqrt+0x164>
    342c:	00058313          	mv	t1,a1
    3430:	02000813          	li	a6,32
    3434:	80000637          	lui	a2,0x80000
    3438:	0440006f          	j	347c <__ieee754_sqrt+0x1e8>
    343c:	00c505b3          	add	a1,a0,a2
    3440:	00068893          	mv	a7,a3
    3444:	04054e63          	bltz	a0,34a0 <__ieee754_sqrt+0x20c>
    3448:	40d787b3          	sub	a5,a5,a3
    344c:	00a736b3          	sltu	a3,a4,a0
    3450:	40d787b3          	sub	a5,a5,a3
    3454:	40a70733          	sub	a4,a4,a0
    3458:	00c30333          	add	t1,t1,a2
    345c:	00088693          	mv	a3,a7
    3460:	01f75513          	srli	a0,a4,0x1f
    3464:	00179793          	slli	a5,a5,0x1
    3468:	00f507b3          	add	a5,a0,a5
    346c:	00171713          	slli	a4,a4,0x1
    3470:	00165613          	srli	a2,a2,0x1
    3474:	fff80813          	addi	a6,a6,-1
    3478:	02080c63          	beqz	a6,34b0 <__ieee754_sqrt+0x21c>
    347c:	00b60533          	add	a0,a2,a1
    3480:	faf6cee3          	blt	a3,a5,343c <__ieee754_sqrt+0x1a8>
    3484:	fcd79ee3          	bne	a5,a3,3460 <__ieee754_sqrt+0x1cc>
    3488:	fca76ce3          	bltu	a4,a0,3460 <__ieee754_sqrt+0x1cc>
    348c:	00c505b3          	add	a1,a0,a2
    3490:	00054863          	bltz	a0,34a0 <__ieee754_sqrt+0x20c>
    3494:	40d787b3          	sub	a5,a5,a3
    3498:	00068893          	mv	a7,a3
    349c:	fb9ff06f          	j	3454 <__ieee754_sqrt+0x1c0>
    34a0:	fff5c893          	not	a7,a1
    34a4:	01f8d893          	srli	a7,a7,0x1f
    34a8:	011688b3          	add	a7,a3,a7
    34ac:	f9dff06f          	j	3448 <__ieee754_sqrt+0x1b4>
    34b0:	00e7e533          	or	a0,a5,a4
    34b4:	00050a63          	beqz	a0,34c8 <__ieee754_sqrt+0x234>
    34b8:	fff00793          	li	a5,-1
    34bc:	04f30863          	beq	t1,a5,350c <__ieee754_sqrt+0x278>
    34c0:	00130313          	addi	t1,t1,1
    34c4:	ffe37313          	andi	t1,t1,-2
    34c8:	401e5793          	srai	a5,t3,0x1
    34cc:	3fe00737          	lui	a4,0x3fe00
    34d0:	00e787b3          	add	a5,a5,a4
    34d4:	00135313          	srli	t1,t1,0x1
    34d8:	001e7e13          	andi	t3,t3,1
    34dc:	000e0663          	beqz	t3,34e8 <__ieee754_sqrt+0x254>
    34e0:	80000737          	lui	a4,0x80000
    34e4:	00e36333          	or	t1,t1,a4
    34e8:	014e9e93          	slli	t4,t4,0x14
    34ec:	00030693          	mv	a3,t1
    34f0:	00fe85b3          	add	a1,t4,a5
    34f4:	00068513          	mv	a0,a3
    34f8:	00c12083          	lw	ra,12(sp)
    34fc:	00812403          	lw	s0,8(sp)
    3500:	00412483          	lw	s1,4(sp)
    3504:	01010113          	addi	sp,sp,16
    3508:	00008067          	ret
    350c:	001e0e13          	addi	t3,t3,1
    3510:	00080313          	mv	t1,a6
    3514:	fb5ff06f          	j	34c8 <__ieee754_sqrt+0x234>

00003518 <__kernel_cos>:
    3518:	fc010113          	addi	sp,sp,-64
    351c:	02112e23          	sw	ra,60(sp)
    3520:	02812c23          	sw	s0,56(sp)
    3524:	02912a23          	sw	s1,52(sp)
    3528:	03212823          	sw	s2,48(sp)
    352c:	03312623          	sw	s3,44(sp)
    3530:	03412423          	sw	s4,40(sp)
    3534:	03512223          	sw	s5,36(sp)
    3538:	03612023          	sw	s6,32(sp)
    353c:	01712e23          	sw	s7,28(sp)
    3540:	01812c23          	sw	s8,24(sp)
    3544:	01912a23          	sw	s9,20(sp)
    3548:	01a12823          	sw	s10,16(sp)
    354c:	01b12623          	sw	s11,12(sp)
    3550:	00050993          	mv	s3,a0
    3554:	00058913          	mv	s2,a1
    3558:	00060b13          	mv	s6,a2
    355c:	00068b93          	mv	s7,a3
    3560:	00159a13          	slli	s4,a1,0x1
    3564:	001a5a13          	srli	s4,s4,0x1
    3568:	3e4007b7          	lui	a5,0x3e400
    356c:	1afa5863          	bge	s4,a5,371c <__kernel_cos+0x204>
    3570:	00098513          	mv	a0,s3
    3574:	00090593          	mv	a1,s2
    3578:	2fd030ef          	jal	ra,7074 <__fixdfsi>
    357c:	34050e63          	beqz	a0,38d8 <__kernel_cos+0x3c0>
    3580:	00098613          	mv	a2,s3
    3584:	00090693          	mv	a3,s2
    3588:	00098513          	mv	a0,s3
    358c:	00090593          	mv	a1,s2
    3590:	3dd020ef          	jal	ra,616c <__muldf3>
    3594:	00050493          	mv	s1,a0
    3598:	00058413          	mv	s0,a1
    359c:	000117b7          	lui	a5,0x11
    35a0:	9d87a603          	lw	a2,-1576(a5) # 109d8 <__clz_tab+0x328>
    35a4:	9dc7a683          	lw	a3,-1572(a5)
    35a8:	3c5020ef          	jal	ra,616c <__muldf3>
    35ac:	000117b7          	lui	a5,0x11
    35b0:	9e07a603          	lw	a2,-1568(a5) # 109e0 <__clz_tab+0x330>
    35b4:	9e47a683          	lw	a3,-1564(a5)
    35b8:	1a5010ef          	jal	ra,4f5c <__adddf3>
    35bc:	00048613          	mv	a2,s1
    35c0:	00040693          	mv	a3,s0
    35c4:	3a9020ef          	jal	ra,616c <__muldf3>
    35c8:	000117b7          	lui	a5,0x11
    35cc:	9e87a603          	lw	a2,-1560(a5) # 109e8 <__clz_tab+0x338>
    35d0:	9ec7a683          	lw	a3,-1556(a5)
    35d4:	264030ef          	jal	ra,6838 <__subdf3>
    35d8:	00048613          	mv	a2,s1
    35dc:	00040693          	mv	a3,s0
    35e0:	38d020ef          	jal	ra,616c <__muldf3>
    35e4:	000117b7          	lui	a5,0x11
    35e8:	9f07a603          	lw	a2,-1552(a5) # 109f0 <__clz_tab+0x340>
    35ec:	9f47a683          	lw	a3,-1548(a5)
    35f0:	16d010ef          	jal	ra,4f5c <__adddf3>
    35f4:	00048613          	mv	a2,s1
    35f8:	00040693          	mv	a3,s0
    35fc:	371020ef          	jal	ra,616c <__muldf3>
    3600:	000117b7          	lui	a5,0x11
    3604:	9f87a603          	lw	a2,-1544(a5) # 109f8 <__clz_tab+0x348>
    3608:	9fc7a683          	lw	a3,-1540(a5)
    360c:	22c030ef          	jal	ra,6838 <__subdf3>
    3610:	00048613          	mv	a2,s1
    3614:	00040693          	mv	a3,s0
    3618:	355020ef          	jal	ra,616c <__muldf3>
    361c:	000117b7          	lui	a5,0x11
    3620:	a007a603          	lw	a2,-1536(a5) # 10a00 <__clz_tab+0x350>
    3624:	a047a683          	lw	a3,-1532(a5)
    3628:	135010ef          	jal	ra,4f5c <__adddf3>
    362c:	00048613          	mv	a2,s1
    3630:	00040693          	mv	a3,s0
    3634:	339020ef          	jal	ra,616c <__muldf3>
    3638:	00050c93          	mv	s9,a0
    363c:	00058c13          	mv	s8,a1
    3640:	000117b7          	lui	a5,0x11
    3644:	8287a603          	lw	a2,-2008(a5) # 10828 <__clz_tab+0x178>
    3648:	82c7a683          	lw	a3,-2004(a5)
    364c:	00048513          	mv	a0,s1
    3650:	00040593          	mv	a1,s0
    3654:	319020ef          	jal	ra,616c <__muldf3>
    3658:	00050a93          	mv	s5,a0
    365c:	00058a13          	mv	s4,a1
    3660:	000c8613          	mv	a2,s9
    3664:	000c0693          	mv	a3,s8
    3668:	00048513          	mv	a0,s1
    366c:	00040593          	mv	a1,s0
    3670:	2fd020ef          	jal	ra,616c <__muldf3>
    3674:	00050493          	mv	s1,a0
    3678:	00058413          	mv	s0,a1
    367c:	000b0613          	mv	a2,s6
    3680:	000b8693          	mv	a3,s7
    3684:	00098513          	mv	a0,s3
    3688:	00090593          	mv	a1,s2
    368c:	2e1020ef          	jal	ra,616c <__muldf3>
    3690:	00050613          	mv	a2,a0
    3694:	00058693          	mv	a3,a1
    3698:	00048513          	mv	a0,s1
    369c:	00040593          	mv	a1,s0
    36a0:	198030ef          	jal	ra,6838 <__subdf3>
    36a4:	00050613          	mv	a2,a0
    36a8:	00058693          	mv	a3,a1
    36ac:	000a8513          	mv	a0,s5
    36b0:	000a0593          	mv	a1,s4
    36b4:	184030ef          	jal	ra,6838 <__subdf3>
    36b8:	00050613          	mv	a2,a0
    36bc:	00058693          	mv	a3,a1
    36c0:	000107b7          	lui	a5,0x10
    36c4:	7c07a503          	lw	a0,1984(a5) # 107c0 <__clz_tab+0x110>
    36c8:	7c47a583          	lw	a1,1988(a5)
    36cc:	16c030ef          	jal	ra,6838 <__subdf3>
    36d0:	00050713          	mv	a4,a0
    36d4:	00058793          	mv	a5,a1
    36d8:	00070513          	mv	a0,a4
    36dc:	00078593          	mv	a1,a5
    36e0:	03c12083          	lw	ra,60(sp)
    36e4:	03812403          	lw	s0,56(sp)
    36e8:	03412483          	lw	s1,52(sp)
    36ec:	03012903          	lw	s2,48(sp)
    36f0:	02c12983          	lw	s3,44(sp)
    36f4:	02812a03          	lw	s4,40(sp)
    36f8:	02412a83          	lw	s5,36(sp)
    36fc:	02012b03          	lw	s6,32(sp)
    3700:	01c12b83          	lw	s7,28(sp)
    3704:	01812c03          	lw	s8,24(sp)
    3708:	01412c83          	lw	s9,20(sp)
    370c:	01012d03          	lw	s10,16(sp)
    3710:	00c12d83          	lw	s11,12(sp)
    3714:	04010113          	addi	sp,sp,64
    3718:	00008067          	ret
    371c:	00050613          	mv	a2,a0
    3720:	00058693          	mv	a3,a1
    3724:	00098513          	mv	a0,s3
    3728:	00090593          	mv	a1,s2
    372c:	241020ef          	jal	ra,616c <__muldf3>
    3730:	00050493          	mv	s1,a0
    3734:	00058413          	mv	s0,a1
    3738:	000117b7          	lui	a5,0x11
    373c:	9d87a603          	lw	a2,-1576(a5) # 109d8 <__clz_tab+0x328>
    3740:	9dc7a683          	lw	a3,-1572(a5)
    3744:	229020ef          	jal	ra,616c <__muldf3>
    3748:	000117b7          	lui	a5,0x11
    374c:	9e07a603          	lw	a2,-1568(a5) # 109e0 <__clz_tab+0x330>
    3750:	9e47a683          	lw	a3,-1564(a5)
    3754:	009010ef          	jal	ra,4f5c <__adddf3>
    3758:	00048613          	mv	a2,s1
    375c:	00040693          	mv	a3,s0
    3760:	20d020ef          	jal	ra,616c <__muldf3>
    3764:	000117b7          	lui	a5,0x11
    3768:	9e87a603          	lw	a2,-1560(a5) # 109e8 <__clz_tab+0x338>
    376c:	9ec7a683          	lw	a3,-1556(a5)
    3770:	0c8030ef          	jal	ra,6838 <__subdf3>
    3774:	00048613          	mv	a2,s1
    3778:	00040693          	mv	a3,s0
    377c:	1f1020ef          	jal	ra,616c <__muldf3>
    3780:	000117b7          	lui	a5,0x11
    3784:	9f07a603          	lw	a2,-1552(a5) # 109f0 <__clz_tab+0x340>
    3788:	9f47a683          	lw	a3,-1548(a5)
    378c:	7d0010ef          	jal	ra,4f5c <__adddf3>
    3790:	00048613          	mv	a2,s1
    3794:	00040693          	mv	a3,s0
    3798:	1d5020ef          	jal	ra,616c <__muldf3>
    379c:	000117b7          	lui	a5,0x11
    37a0:	9f87a603          	lw	a2,-1544(a5) # 109f8 <__clz_tab+0x348>
    37a4:	9fc7a683          	lw	a3,-1540(a5)
    37a8:	090030ef          	jal	ra,6838 <__subdf3>
    37ac:	00048613          	mv	a2,s1
    37b0:	00040693          	mv	a3,s0
    37b4:	1b9020ef          	jal	ra,616c <__muldf3>
    37b8:	000117b7          	lui	a5,0x11
    37bc:	a007a603          	lw	a2,-1536(a5) # 10a00 <__clz_tab+0x350>
    37c0:	a047a683          	lw	a3,-1532(a5)
    37c4:	798010ef          	jal	ra,4f5c <__adddf3>
    37c8:	00048613          	mv	a2,s1
    37cc:	00040693          	mv	a3,s0
    37d0:	19d020ef          	jal	ra,616c <__muldf3>
    37d4:	00050c93          	mv	s9,a0
    37d8:	00058c13          	mv	s8,a1
    37dc:	3fd337b7          	lui	a5,0x3fd33
    37e0:	33278793          	addi	a5,a5,818 # 3fd33332 <soln_cnt0+0x3fd22856>
    37e4:	e547dee3          	bge	a5,s4,3640 <__kernel_cos+0x128>
    37e8:	3fe907b7          	lui	a5,0x3fe90
    37ec:	0d47ce63          	blt	a5,s4,38c8 <__kernel_cos+0x3b0>
    37f0:	00000713          	li	a4,0
    37f4:	ffe007b7          	lui	a5,0xffe00
    37f8:	00fa07b3          	add	a5,s4,a5
    37fc:	00070a13          	mv	s4,a4
    3800:	00078a93          	mv	s5,a5
    3804:	000a0613          	mv	a2,s4
    3808:	000a8693          	mv	a3,s5
    380c:	000107b7          	lui	a5,0x10
    3810:	7c07a503          	lw	a0,1984(a5) # 107c0 <__clz_tab+0x110>
    3814:	7c47a583          	lw	a1,1988(a5)
    3818:	020030ef          	jal	ra,6838 <__subdf3>
    381c:	00050d93          	mv	s11,a0
    3820:	00058d13          	mv	s10,a1
    3824:	000117b7          	lui	a5,0x11
    3828:	8287a603          	lw	a2,-2008(a5) # 10828 <__clz_tab+0x178>
    382c:	82c7a683          	lw	a3,-2004(a5)
    3830:	00048513          	mv	a0,s1
    3834:	00040593          	mv	a1,s0
    3838:	135020ef          	jal	ra,616c <__muldf3>
    383c:	000a0613          	mv	a2,s4
    3840:	000a8693          	mv	a3,s5
    3844:	7f5020ef          	jal	ra,6838 <__subdf3>
    3848:	00050a93          	mv	s5,a0
    384c:	00058a13          	mv	s4,a1
    3850:	000c8613          	mv	a2,s9
    3854:	000c0693          	mv	a3,s8
    3858:	00048513          	mv	a0,s1
    385c:	00040593          	mv	a1,s0
    3860:	10d020ef          	jal	ra,616c <__muldf3>
    3864:	00050493          	mv	s1,a0
    3868:	00058413          	mv	s0,a1
    386c:	000b0613          	mv	a2,s6
    3870:	000b8693          	mv	a3,s7
    3874:	00098513          	mv	a0,s3
    3878:	00090593          	mv	a1,s2
    387c:	0f1020ef          	jal	ra,616c <__muldf3>
    3880:	00050613          	mv	a2,a0
    3884:	00058693          	mv	a3,a1
    3888:	00048513          	mv	a0,s1
    388c:	00040593          	mv	a1,s0
    3890:	7a9020ef          	jal	ra,6838 <__subdf3>
    3894:	00050613          	mv	a2,a0
    3898:	00058693          	mv	a3,a1
    389c:	000a8513          	mv	a0,s5
    38a0:	000a0593          	mv	a1,s4
    38a4:	795020ef          	jal	ra,6838 <__subdf3>
    38a8:	00050613          	mv	a2,a0
    38ac:	00058693          	mv	a3,a1
    38b0:	000d8513          	mv	a0,s11
    38b4:	000d0593          	mv	a1,s10
    38b8:	781020ef          	jal	ra,6838 <__subdf3>
    38bc:	00050713          	mv	a4,a0
    38c0:	00058793          	mv	a5,a1
    38c4:	e15ff06f          	j	36d8 <__kernel_cos+0x1c0>
    38c8:	000117b7          	lui	a5,0x11
    38cc:	9d07aa03          	lw	s4,-1584(a5) # 109d0 <__clz_tab+0x320>
    38d0:	9d47aa83          	lw	s5,-1580(a5)
    38d4:	f31ff06f          	j	3804 <__kernel_cos+0x2ec>
    38d8:	000107b7          	lui	a5,0x10
    38dc:	7c07a703          	lw	a4,1984(a5) # 107c0 <__clz_tab+0x110>
    38e0:	7c47a783          	lw	a5,1988(a5)
    38e4:	df5ff06f          	j	36d8 <__kernel_cos+0x1c0>

000038e8 <__kernel_rem_pio2>:
    38e8:	d3010113          	addi	sp,sp,-720
    38ec:	2c112623          	sw	ra,716(sp)
    38f0:	2c812423          	sw	s0,712(sp)
    38f4:	2c912223          	sw	s1,708(sp)
    38f8:	2d212023          	sw	s2,704(sp)
    38fc:	2b312e23          	sw	s3,700(sp)
    3900:	2b412c23          	sw	s4,696(sp)
    3904:	2b512a23          	sw	s5,692(sp)
    3908:	2b612823          	sw	s6,688(sp)
    390c:	2b712623          	sw	s7,684(sp)
    3910:	2b812423          	sw	s8,680(sp)
    3914:	2b912223          	sw	s9,676(sp)
    3918:	2ba12023          	sw	s10,672(sp)
    391c:	29b12e23          	sw	s11,668(sp)
    3920:	00a12a23          	sw	a0,20(sp)
    3924:	04b12023          	sw	a1,64(sp)
    3928:	00060413          	mv	s0,a2
    392c:	02d12a23          	sw	a3,52(sp)
    3930:	04e12223          	sw	a4,68(sp)
    3934:	02f12c23          	sw	a5,56(sp)
    3938:	00271713          	slli	a4,a4,0x2
    393c:	000107b7          	lui	a5,0x10
    3940:	5e878793          	addi	a5,a5,1512 # 105e8 <init_jk>
    3944:	00e787b3          	add	a5,a5,a4
    3948:	0007ad03          	lw	s10,0(a5)
    394c:	fff68d93          	addi	s11,a3,-1
    3950:	fec00793          	li	a5,-20
    3954:	02012823          	sw	zero,48(sp)
    3958:	00f64a63          	blt	a2,a5,396c <__kernel_rem_pio2+0x84>
    395c:	01800593          	li	a1,24
    3960:	ffd60513          	addi	a0,a2,-3 # 7ffffffd <soln_cnt0+0x7ffef521>
    3964:	369080ef          	jal	ra,c4cc <__divsi3>
    3968:	02a12823          	sw	a0,48(sp)
    396c:	03012683          	lw	a3,48(sp)
    3970:	00168793          	addi	a5,a3,1
    3974:	00279713          	slli	a4,a5,0x2
    3978:	40e787b3          	sub	a5,a5,a4
    397c:	00379793          	slli	a5,a5,0x3
    3980:	008787b3          	add	a5,a5,s0
    3984:	00f12c23          	sw	a5,24(sp)
    3988:	41b68433          	sub	s0,a3,s11
    398c:	01bd07b3          	add	a5,s10,s11
    3990:	0407cc63          	bltz	a5,39e8 <__kernel_rem_pio2+0x100>
    3994:	1a010493          	addi	s1,sp,416
    3998:	00241913          	slli	s2,s0,0x2
    399c:	03812703          	lw	a4,56(sp)
    39a0:	01270933          	add	s2,a4,s2
    39a4:	00178793          	addi	a5,a5,1
    39a8:	008789b3          	add	s3,a5,s0
    39ac:	00000a93          	li	s5,0
    39b0:	00000a13          	li	s4,0
    39b4:	01c0006f          	j	39d0 <__kernel_rem_pio2+0xe8>
    39b8:	00a4a023          	sw	a0,0(s1)
    39bc:	00b4a223          	sw	a1,4(s1)
    39c0:	00140413          	addi	s0,s0,1
    39c4:	00848493          	addi	s1,s1,8
    39c8:	00490913          	addi	s2,s2,4
    39cc:	01340e63          	beq	s0,s3,39e8 <__kernel_rem_pio2+0x100>
    39d0:	000a8513          	mv	a0,s5
    39d4:	000a0593          	mv	a1,s4
    39d8:	fe0440e3          	bltz	s0,39b8 <__kernel_rem_pio2+0xd0>
    39dc:	00092503          	lw	a0,0(s2)
    39e0:	714030ef          	jal	ra,70f4 <__floatsidf>
    39e4:	fd5ff06f          	j	39b8 <__kernel_rem_pio2+0xd0>
    39e8:	080d4863          	bltz	s10,3a78 <__kernel_rem_pio2+0x190>
    39ec:	06010b13          	addi	s6,sp,96
    39f0:	000d8a93          	mv	s5,s11
    39f4:	1a010a13          	addi	s4,sp,416
    39f8:	03412783          	lw	a5,52(sp)
    39fc:	00fd0bb3          	add	s7,s10,a5
    3a00:	00379c93          	slli	s9,a5,0x3
    3a04:	00000c13          	li	s8,0
    3a08:	0580006f          	j	3a60 <__kernel_rem_pio2+0x178>
    3a0c:	ff892603          	lw	a2,-8(s2)
    3a10:	ffc92683          	lw	a3,-4(s2)
    3a14:	0009a503          	lw	a0,0(s3)
    3a18:	0049a583          	lw	a1,4(s3)
    3a1c:	750020ef          	jal	ra,616c <__muldf3>
    3a20:	00050613          	mv	a2,a0
    3a24:	00058693          	mv	a3,a1
    3a28:	00048513          	mv	a0,s1
    3a2c:	00040593          	mv	a1,s0
    3a30:	52c010ef          	jal	ra,4f5c <__adddf3>
    3a34:	00050493          	mv	s1,a0
    3a38:	00058413          	mv	s0,a1
    3a3c:	00898993          	addi	s3,s3,8
    3a40:	ff890913          	addi	s2,s2,-8
    3a44:	fd4914e3          	bne	s2,s4,3a0c <__kernel_rem_pio2+0x124>
    3a48:	009b2023          	sw	s1,0(s6) # 3ff00000 <soln_cnt0+0x3feef524>
    3a4c:	008b2223          	sw	s0,4(s6)
    3a50:	008b0b13          	addi	s6,s6,8
    3a54:	001a8a93          	addi	s5,s5,1
    3a58:	008a0a13          	addi	s4,s4,8
    3a5c:	017a8e63          	beq	s5,s7,3a78 <__kernel_rem_pio2+0x190>
    3a60:	01412983          	lw	s3,20(sp)
    3a64:	019a0933          	add	s2,s4,s9
    3a68:	000c0493          	mv	s1,s8
    3a6c:	00000413          	li	s0,0
    3a70:	f80ddee3          	bgez	s11,3a0c <__kernel_rem_pio2+0x124>
    3a74:	fd5ff06f          	j	3a48 <__kernel_rem_pio2+0x160>
    3a78:	002d1793          	slli	a5,s10,0x2
    3a7c:	23c10713          	addi	a4,sp,572
    3a80:	00f70633          	add	a2,a4,a5
    3a84:	ff878793          	addi	a5,a5,-8
    3a88:	24010713          	addi	a4,sp,576
    3a8c:	00f707b3          	add	a5,a4,a5
    3a90:	02f12e23          	sw	a5,60(sp)
    3a94:	03412783          	lw	a5,52(sp)
    3a98:	00379a13          	slli	s4,a5,0x3
    3a9c:	01412783          	lw	a5,20(sp)
    3aa0:	01478a33          	add	s4,a5,s4
    3aa4:	000d0913          	mv	s2,s10
    3aa8:	000117b7          	lui	a5,0x11
    3aac:	a0c7a803          	lw	a6,-1524(a5) # 10a0c <__clz_tab+0x35c>
    3ab0:	a087a783          	lw	a5,-1528(a5)
    3ab4:	00f12023          	sw	a5,0(sp)
    3ab8:	01012223          	sw	a6,4(sp)
    3abc:	000117b7          	lui	a5,0x11
    3ac0:	9cc7a803          	lw	a6,-1588(a5) # 109cc <__clz_tab+0x31c>
    3ac4:	9c87a783          	lw	a5,-1592(a5)
    3ac8:	00f12423          	sw	a5,8(sp)
    3acc:	01012623          	sw	a6,12(sp)
    3ad0:	000117b7          	lui	a5,0x11
    3ad4:	a147a803          	lw	a6,-1516(a5) # 10a14 <__clz_tab+0x364>
    3ad8:	a107a783          	lw	a5,-1520(a5)
    3adc:	02f12023          	sw	a5,32(sp)
    3ae0:	03012223          	sw	a6,36(sp)
    3ae4:	000117b7          	lui	a5,0x11
    3ae8:	a1c7a803          	lw	a6,-1508(a5) # 10a1c <__clz_tab+0x36c>
    3aec:	a187a783          	lw	a5,-1512(a5)
    3af0:	02f12423          	sw	a5,40(sp)
    3af4:	03012623          	sw	a6,44(sp)
    3af8:	000107b7          	lui	a5,0x10
    3afc:	7c07a683          	lw	a3,1984(a5) # 107c0 <__clz_tab+0x110>
    3b00:	7c47a703          	lw	a4,1988(a5)
    3b04:	04d12823          	sw	a3,80(sp)
    3b08:	04e12a23          	sw	a4,84(sp)
    3b0c:	04d12c23          	sw	a3,88(sp)
    3b10:	04e12e23          	sw	a4,92(sp)
    3b14:	000117b7          	lui	a5,0x11
    3b18:	82c7a803          	lw	a6,-2004(a5) # 1082c <__clz_tab+0x17c>
    3b1c:	8287a783          	lw	a5,-2008(a5)
    3b20:	04f12423          	sw	a5,72(sp)
    3b24:	05012623          	sw	a6,76(sp)
    3b28:	01a12e23          	sw	s10,28(sp)
    3b2c:	00060d13          	mv	s10,a2
    3b30:	1f80006f          	j	3d28 <__kernel_rem_pio2+0x440>
    3b34:	01812783          	lw	a5,24(sp)
    3b38:	02079263          	bnez	a5,3b5c <__kernel_rem_pio2+0x274>
    3b3c:	fff90793          	addi	a5,s2,-1
    3b40:	00279793          	slli	a5,a5,0x2
    3b44:	23078793          	addi	a5,a5,560
    3b48:	06010713          	addi	a4,sp,96
    3b4c:	00e787b3          	add	a5,a5,a4
    3b50:	fb07a783          	lw	a5,-80(a5)
    3b54:	4177d493          	srai	s1,a5,0x17
    3b58:	3380006f          	j	3e90 <__kernel_rem_pio2+0x5a8>
    3b5c:	04812603          	lw	a2,72(sp)
    3b60:	04c12683          	lw	a3,76(sp)
    3b64:	000a8513          	mv	a0,s5
    3b68:	00098593          	mv	a1,s3
    3b6c:	438020ef          	jal	ra,5fa4 <__gedf2>
    3b70:	00000493          	li	s1,0
    3b74:	06054663          	bltz	a0,3be0 <__kernel_rem_pio2+0x2f8>
    3b78:	001c8c93          	addi	s9,s9,1
    3b7c:	00200493          	li	s1,2
    3b80:	00000413          	li	s0,0
    3b84:	31204c63          	bgtz	s2,3e9c <__kernel_rem_pio2+0x5b4>
    3b88:	0500006f          	j	3bd8 <__kernel_rem_pio2+0x2f0>
    3b8c:	40e58733          	sub	a4,a1,a4
    3b90:	00e7a023          	sw	a4,0(a5)
    3b94:	00478793          	addi	a5,a5,4
    3b98:	02d78463          	beq	a5,a3,3bc0 <__kernel_rem_pio2+0x2d8>
    3b9c:	0007a703          	lw	a4,0(a5)
    3ba0:	fe0416e3          	bnez	s0,3b8c <__kernel_rem_pio2+0x2a4>
    3ba4:	00070413          	mv	s0,a4
    3ba8:	fe0706e3          	beqz	a4,3b94 <__kernel_rem_pio2+0x2ac>
    3bac:	40e50733          	sub	a4,a0,a4
    3bb0:	00e7a023          	sw	a4,0(a5)
    3bb4:	00080413          	mv	s0,a6
    3bb8:	fddff06f          	j	3b94 <__kernel_rem_pio2+0x2ac>
    3bbc:	00000413          	li	s0,0
    3bc0:	01812703          	lw	a4,24(sp)
    3bc4:	00e05a63          	blez	a4,3bd8 <__kernel_rem_pio2+0x2f0>
    3bc8:	00100793          	li	a5,1
    3bcc:	2ef70863          	beq	a4,a5,3ebc <__kernel_rem_pio2+0x5d4>
    3bd0:	00200793          	li	a5,2
    3bd4:	30f70863          	beq	a4,a5,3ee4 <__kernel_rem_pio2+0x5fc>
    3bd8:	00200793          	li	a5,2
    3bdc:	32f48863          	beq	s1,a5,3f0c <__kernel_rem_pio2+0x624>
    3be0:	00000613          	li	a2,0
    3be4:	00000693          	li	a3,0
    3be8:	000a8513          	mv	a0,s5
    3bec:	00098593          	mv	a1,s3
    3bf0:	328020ef          	jal	ra,5f18 <__eqdf2>
    3bf4:	48051a63          	bnez	a0,4088 <__kernel_rem_pio2+0x7a0>
    3bf8:	fff90593          	addi	a1,s2,-1
    3bfc:	01c12783          	lw	a5,28(sp)
    3c00:	02f5c663          	blt	a1,a5,3c2c <__kernel_rem_pio2+0x344>
    3c04:	00291613          	slli	a2,s2,0x2
    3c08:	ffc60613          	addi	a2,a2,-4
    3c0c:	24010793          	addi	a5,sp,576
    3c10:	00c787b3          	add	a5,a5,a2
    3c14:	00000713          	li	a4,0
    3c18:	0007a683          	lw	a3,0(a5)
    3c1c:	00d76733          	or	a4,a4,a3
    3c20:	ffc78793          	addi	a5,a5,-4
    3c24:	ffa79ae3          	bne	a5,s10,3c18 <__kernel_rem_pio2+0x330>
    3c28:	34071063          	bnez	a4,3f68 <__kernel_rem_pio2+0x680>
    3c2c:	01c12783          	lw	a5,28(sp)
    3c30:	fff78793          	addi	a5,a5,-1
    3c34:	00279793          	slli	a5,a5,0x2
    3c38:	23078793          	addi	a5,a5,560
    3c3c:	06010713          	addi	a4,sp,96
    3c40:	00e787b3          	add	a5,a5,a4
    3c44:	fb07a783          	lw	a5,-80(a5)
    3c48:	0a079ae3          	bnez	a5,44fc <__kernel_rem_pio2+0xc14>
    3c4c:	03c12783          	lw	a5,60(sp)
    3c50:	00100713          	li	a4,1
    3c54:	00170713          	addi	a4,a4,1 # 80000001 <soln_cnt0+0x7ffef525>
    3c58:	ffc78793          	addi	a5,a5,-4
    3c5c:	0047a683          	lw	a3,4(a5)
    3c60:	fe068ae3          	beqz	a3,3c54 <__kernel_rem_pio2+0x36c>
    3c64:	00190c13          	addi	s8,s2,1
    3c68:	00e90cb3          	add	s9,s2,a4
    3c6c:	0ae05c63          	blez	a4,3d24 <__kernel_rem_pio2+0x43c>
    3c70:	03012783          	lw	a5,48(sp)
    3c74:	01878b33          	add	s6,a5,s8
    3c78:	002b1b13          	slli	s6,s6,0x2
    3c7c:	03812783          	lw	a5,56(sp)
    3c80:	01678b33          	add	s6,a5,s6
    3c84:	03412783          	lw	a5,52(sp)
    3c88:	012787b3          	add	a5,a5,s2
    3c8c:	00379793          	slli	a5,a5,0x3
    3c90:	1a010713          	addi	a4,sp,416
    3c94:	00f70ab3          	add	s5,a4,a5
    3c98:	00190793          	addi	a5,s2,1
    3c9c:	00379793          	slli	a5,a5,0x3
    3ca0:	06078793          	addi	a5,a5,96
    3ca4:	00278bb3          	add	s7,a5,sp
    3ca8:	000b2503          	lw	a0,0(s6)
    3cac:	448030ef          	jal	ra,70f4 <__floatsidf>
    3cb0:	00aaa023          	sw	a0,0(s5)
    3cb4:	00baa223          	sw	a1,4(s5)
    3cb8:	2a0dc263          	bltz	s11,3f5c <__kernel_rem_pio2+0x674>
    3cbc:	000a8993          	mv	s3,s5
    3cc0:	01412903          	lw	s2,20(sp)
    3cc4:	00000493          	li	s1,0
    3cc8:	00000413          	li	s0,0
    3ccc:	0009a603          	lw	a2,0(s3)
    3cd0:	0049a683          	lw	a3,4(s3)
    3cd4:	00092503          	lw	a0,0(s2)
    3cd8:	00492583          	lw	a1,4(s2)
    3cdc:	490020ef          	jal	ra,616c <__muldf3>
    3ce0:	00050613          	mv	a2,a0
    3ce4:	00058693          	mv	a3,a1
    3ce8:	00048513          	mv	a0,s1
    3cec:	00040593          	mv	a1,s0
    3cf0:	26c010ef          	jal	ra,4f5c <__adddf3>
    3cf4:	00050493          	mv	s1,a0
    3cf8:	00058413          	mv	s0,a1
    3cfc:	00890913          	addi	s2,s2,8
    3d00:	ff898993          	addi	s3,s3,-8
    3d04:	fd4914e3          	bne	s2,s4,3ccc <__kernel_rem_pio2+0x3e4>
    3d08:	009ba023          	sw	s1,0(s7)
    3d0c:	008ba223          	sw	s0,4(s7)
    3d10:	001c0c13          	addi	s8,s8,1
    3d14:	004b0b13          	addi	s6,s6,4
    3d18:	008a8a93          	addi	s5,s5,8
    3d1c:	008b8b93          	addi	s7,s7,8
    3d20:	f98cd4e3          	bge	s9,s8,3ca8 <__kernel_rem_pio2+0x3c0>
    3d24:	000c8913          	mv	s2,s9
    3d28:	00391793          	slli	a5,s2,0x3
    3d2c:	23078793          	addi	a5,a5,560
    3d30:	06010713          	addi	a4,sp,96
    3d34:	00e787b3          	add	a5,a5,a4
    3d38:	dd07a483          	lw	s1,-560(a5)
    3d3c:	dd47a403          	lw	s0,-556(a5)
    3d40:	09205863          	blez	s2,3dd0 <__kernel_rem_pio2+0x4e8>
    3d44:	00070c13          	mv	s8,a4
    3d48:	00391993          	slli	s3,s2,0x3
    3d4c:	ff898993          	addi	s3,s3,-8
    3d50:	013709b3          	add	s3,a4,s3
    3d54:	24010b93          	addi	s7,sp,576
    3d58:	00012603          	lw	a2,0(sp)
    3d5c:	00412683          	lw	a3,4(sp)
    3d60:	00048513          	mv	a0,s1
    3d64:	00040593          	mv	a1,s0
    3d68:	404020ef          	jal	ra,616c <__muldf3>
    3d6c:	308030ef          	jal	ra,7074 <__fixdfsi>
    3d70:	384030ef          	jal	ra,70f4 <__floatsidf>
    3d74:	00050b13          	mv	s6,a0
    3d78:	00058a93          	mv	s5,a1
    3d7c:	00812603          	lw	a2,8(sp)
    3d80:	00c12683          	lw	a3,12(sp)
    3d84:	3e8020ef          	jal	ra,616c <__muldf3>
    3d88:	00050613          	mv	a2,a0
    3d8c:	00058693          	mv	a3,a1
    3d90:	00048513          	mv	a0,s1
    3d94:	00040593          	mv	a1,s0
    3d98:	2a1020ef          	jal	ra,6838 <__subdf3>
    3d9c:	2d8030ef          	jal	ra,7074 <__fixdfsi>
    3da0:	00aba023          	sw	a0,0(s7)
    3da4:	0009a603          	lw	a2,0(s3)
    3da8:	0049a683          	lw	a3,4(s3)
    3dac:	000b0513          	mv	a0,s6
    3db0:	000a8593          	mv	a1,s5
    3db4:	1a8010ef          	jal	ra,4f5c <__adddf3>
    3db8:	00050493          	mv	s1,a0
    3dbc:	00058413          	mv	s0,a1
    3dc0:	004b8b93          	addi	s7,s7,4
    3dc4:	00098793          	mv	a5,s3
    3dc8:	ff898993          	addi	s3,s3,-8
    3dcc:	f98796e3          	bne	a5,s8,3d58 <__kernel_rem_pio2+0x470>
    3dd0:	01812b03          	lw	s6,24(sp)
    3dd4:	000b0613          	mv	a2,s6
    3dd8:	00048513          	mv	a0,s1
    3ddc:	00040593          	mv	a1,s0
    3de0:	791000ef          	jal	ra,4d70 <scalbn>
    3de4:	00050493          	mv	s1,a0
    3de8:	00058413          	mv	s0,a1
    3dec:	02012603          	lw	a2,32(sp)
    3df0:	02412683          	lw	a3,36(sp)
    3df4:	378020ef          	jal	ra,616c <__muldf3>
    3df8:	581000ef          	jal	ra,4b78 <floor>
    3dfc:	02812603          	lw	a2,40(sp)
    3e00:	02c12683          	lw	a3,44(sp)
    3e04:	368020ef          	jal	ra,616c <__muldf3>
    3e08:	00050613          	mv	a2,a0
    3e0c:	00058693          	mv	a3,a1
    3e10:	00048513          	mv	a0,s1
    3e14:	00040593          	mv	a1,s0
    3e18:	221020ef          	jal	ra,6838 <__subdf3>
    3e1c:	00050493          	mv	s1,a0
    3e20:	00058413          	mv	s0,a1
    3e24:	250030ef          	jal	ra,7074 <__fixdfsi>
    3e28:	00050c93          	mv	s9,a0
    3e2c:	2c8030ef          	jal	ra,70f4 <__floatsidf>
    3e30:	00050613          	mv	a2,a0
    3e34:	00058693          	mv	a3,a1
    3e38:	00048513          	mv	a0,s1
    3e3c:	00040593          	mv	a1,s0
    3e40:	1f9020ef          	jal	ra,6838 <__subdf3>
    3e44:	00050a93          	mv	s5,a0
    3e48:	00058993          	mv	s3,a1
    3e4c:	cf6054e3          	blez	s6,3b34 <__kernel_rem_pio2+0x24c>
    3e50:	fff90793          	addi	a5,s2,-1
    3e54:	00279793          	slli	a5,a5,0x2
    3e58:	23078793          	addi	a5,a5,560
    3e5c:	06010713          	addi	a4,sp,96
    3e60:	00e787b3          	add	a5,a5,a4
    3e64:	fb07a703          	lw	a4,-80(a5)
    3e68:	01800613          	li	a2,24
    3e6c:	41660633          	sub	a2,a2,s6
    3e70:	40c756b3          	sra	a3,a4,a2
    3e74:	00dc8cb3          	add	s9,s9,a3
    3e78:	00c696b3          	sll	a3,a3,a2
    3e7c:	40d70733          	sub	a4,a4,a3
    3e80:	fae7a823          	sw	a4,-80(a5)
    3e84:	01700793          	li	a5,23
    3e88:	416787b3          	sub	a5,a5,s6
    3e8c:	40f754b3          	sra	s1,a4,a5
    3e90:	d49058e3          	blez	s1,3be0 <__kernel_rem_pio2+0x2f8>
    3e94:	001c8c93          	addi	s9,s9,1
    3e98:	d32052e3          	blez	s2,3bbc <__kernel_rem_pio2+0x2d4>
    3e9c:	00291693          	slli	a3,s2,0x2
    3ea0:	24010793          	addi	a5,sp,576
    3ea4:	00f686b3          	add	a3,a3,a5
    3ea8:	00000413          	li	s0,0
    3eac:	01000537          	lui	a0,0x1000
    3eb0:	fff50593          	addi	a1,a0,-1 # ffffff <soln_cnt0+0xfef523>
    3eb4:	00100813          	li	a6,1
    3eb8:	ce5ff06f          	j	3b9c <__kernel_rem_pio2+0x2b4>
    3ebc:	fff90793          	addi	a5,s2,-1
    3ec0:	00279793          	slli	a5,a5,0x2
    3ec4:	23078793          	addi	a5,a5,560
    3ec8:	06010713          	addi	a4,sp,96
    3ecc:	00e787b3          	add	a5,a5,a4
    3ed0:	fb07a703          	lw	a4,-80(a5)
    3ed4:	00971713          	slli	a4,a4,0x9
    3ed8:	00975713          	srli	a4,a4,0x9
    3edc:	fae7a823          	sw	a4,-80(a5)
    3ee0:	cf9ff06f          	j	3bd8 <__kernel_rem_pio2+0x2f0>
    3ee4:	fff90793          	addi	a5,s2,-1
    3ee8:	00279793          	slli	a5,a5,0x2
    3eec:	23078793          	addi	a5,a5,560
    3ef0:	06010713          	addi	a4,sp,96
    3ef4:	00e787b3          	add	a5,a5,a4
    3ef8:	fb07a703          	lw	a4,-80(a5)
    3efc:	00a71713          	slli	a4,a4,0xa
    3f00:	00a75713          	srli	a4,a4,0xa
    3f04:	fae7a823          	sw	a4,-80(a5)
    3f08:	cd1ff06f          	j	3bd8 <__kernel_rem_pio2+0x2f0>
    3f0c:	000a8613          	mv	a2,s5
    3f10:	00098693          	mv	a3,s3
    3f14:	05012503          	lw	a0,80(sp)
    3f18:	05412583          	lw	a1,84(sp)
    3f1c:	11d020ef          	jal	ra,6838 <__subdf3>
    3f20:	00050a93          	mv	s5,a0
    3f24:	00058993          	mv	s3,a1
    3f28:	ca040ce3          	beqz	s0,3be0 <__kernel_rem_pio2+0x2f8>
    3f2c:	01812603          	lw	a2,24(sp)
    3f30:	05812503          	lw	a0,88(sp)
    3f34:	05c12583          	lw	a1,92(sp)
    3f38:	639000ef          	jal	ra,4d70 <scalbn>
    3f3c:	00050613          	mv	a2,a0
    3f40:	00058693          	mv	a3,a1
    3f44:	000a8513          	mv	a0,s5
    3f48:	00098593          	mv	a1,s3
    3f4c:	0ed020ef          	jal	ra,6838 <__subdf3>
    3f50:	00050a93          	mv	s5,a0
    3f54:	00058993          	mv	s3,a1
    3f58:	c89ff06f          	j	3be0 <__kernel_rem_pio2+0x2f8>
    3f5c:	00000493          	li	s1,0
    3f60:	00000413          	li	s0,0
    3f64:	da5ff06f          	j	3d08 <__kernel_rem_pio2+0x420>
    3f68:	00912a23          	sw	s1,20(sp)
    3f6c:	01c12d03          	lw	s10,28(sp)
    3f70:	00058713          	mv	a4,a1
    3f74:	00b12023          	sw	a1,0(sp)
    3f78:	01812783          	lw	a5,24(sp)
    3f7c:	fe878693          	addi	a3,a5,-24
    3f80:	00d12c23          	sw	a3,24(sp)
    3f84:	00259793          	slli	a5,a1,0x2
    3f88:	23078793          	addi	a5,a5,560
    3f8c:	06010593          	addi	a1,sp,96
    3f90:	00b787b3          	add	a5,a5,a1
    3f94:	fb07a783          	lw	a5,-80(a5)
    3f98:	02079663          	bnez	a5,3fc4 <__kernel_rem_pio2+0x6dc>
    3f9c:	23060793          	addi	a5,a2,560
    3fa0:	00b787b3          	add	a5,a5,a1
    3fa4:	fac78793          	addi	a5,a5,-84
    3fa8:	fff70713          	addi	a4,a4,-1
    3fac:	fe868693          	addi	a3,a3,-24
    3fb0:	ffc78793          	addi	a5,a5,-4
    3fb4:	0047a603          	lw	a2,4(a5)
    3fb8:	fe0608e3          	beqz	a2,3fa8 <__kernel_rem_pio2+0x6c0>
    3fbc:	00e12023          	sw	a4,0(sp)
    3fc0:	00d12c23          	sw	a3,24(sp)
    3fc4:	01812603          	lw	a2,24(sp)
    3fc8:	000107b7          	lui	a5,0x10
    3fcc:	7c07a503          	lw	a0,1984(a5) # 107c0 <__clz_tab+0x110>
    3fd0:	7c47a583          	lw	a1,1988(a5)
    3fd4:	59d000ef          	jal	ra,4d70 <scalbn>
    3fd8:	00050913          	mv	s2,a0
    3fdc:	00058993          	mv	s3,a1
    3fe0:	00012703          	lw	a4,0(sp)
    3fe4:	4e074463          	bltz	a4,44cc <__kernel_rem_pio2+0xbe4>
    3fe8:	00e12c23          	sw	a4,24(sp)
    3fec:	00271793          	slli	a5,a4,0x2
    3ff0:	24010693          	addi	a3,sp,576
    3ff4:	00f68a33          	add	s4,a3,a5
    3ff8:	00371793          	slli	a5,a4,0x3
    3ffc:	00f12e23          	sw	a5,28(sp)
    4000:	06078793          	addi	a5,a5,96
    4004:	00278bb3          	add	s7,a5,sp
    4008:	000b8a93          	mv	s5,s7
    400c:	000117b7          	lui	a5,0x11
    4010:	a087a403          	lw	s0,-1528(a5) # 10a08 <__clz_tab+0x358>
    4014:	a0c7a483          	lw	s1,-1524(a5)
    4018:	000a2503          	lw	a0,0(s4)
    401c:	0d8030ef          	jal	ra,70f4 <__floatsidf>
    4020:	00090613          	mv	a2,s2
    4024:	00098693          	mv	a3,s3
    4028:	144020ef          	jal	ra,616c <__muldf3>
    402c:	00aaa023          	sw	a0,0(s5)
    4030:	00baa223          	sw	a1,4(s5)
    4034:	00040613          	mv	a2,s0
    4038:	00048693          	mv	a3,s1
    403c:	00090513          	mv	a0,s2
    4040:	00098593          	mv	a1,s3
    4044:	128020ef          	jal	ra,616c <__muldf3>
    4048:	00050913          	mv	s2,a0
    404c:	00058993          	mv	s3,a1
    4050:	000a0793          	mv	a5,s4
    4054:	ffca0a13          	addi	s4,s4,-4
    4058:	ff8a8a93          	addi	s5,s5,-8
    405c:	24010713          	addi	a4,sp,576
    4060:	fae79ce3          	bne	a5,a4,4018 <__kernel_rem_pio2+0x730>
    4064:	10010d93          	addi	s11,sp,256
    4068:	000d8c13          	mv	s8,s11
    406c:	00000b13          	li	s6,0
    4070:	000107b7          	lui	a5,0x10
    4074:	5e878793          	addi	a5,a5,1512 # 105e8 <init_jk>
    4078:	00f12423          	sw	a5,8(sp)
    407c:	03912023          	sw	s9,32(sp)
    4080:	01812c83          	lw	s9,24(sp)
    4084:	1140006f          	j	4198 <__kernel_rem_pio2+0x8b0>
    4088:	00912a23          	sw	s1,20(sp)
    408c:	01c12d03          	lw	s10,28(sp)
    4090:	000a8493          	mv	s1,s5
    4094:	01812a83          	lw	s5,24(sp)
    4098:	41500633          	neg	a2,s5
    409c:	00048513          	mv	a0,s1
    40a0:	00098593          	mv	a1,s3
    40a4:	4cd000ef          	jal	ra,4d70 <scalbn>
    40a8:	00050493          	mv	s1,a0
    40ac:	00058413          	mv	s0,a1
    40b0:	000117b7          	lui	a5,0x11
    40b4:	9c87a603          	lw	a2,-1592(a5) # 109c8 <__clz_tab+0x318>
    40b8:	9cc7a683          	lw	a3,-1588(a5)
    40bc:	6e9010ef          	jal	ra,5fa4 <__gedf2>
    40c0:	08054663          	bltz	a0,414c <__kernel_rem_pio2+0x864>
    40c4:	000117b7          	lui	a5,0x11
    40c8:	a087a603          	lw	a2,-1528(a5) # 10a08 <__clz_tab+0x358>
    40cc:	a0c7a683          	lw	a3,-1524(a5)
    40d0:	00048513          	mv	a0,s1
    40d4:	00040593          	mv	a1,s0
    40d8:	094020ef          	jal	ra,616c <__muldf3>
    40dc:	799020ef          	jal	ra,7074 <__fixdfsi>
    40e0:	00050993          	mv	s3,a0
    40e4:	00291a13          	slli	s4,s2,0x2
    40e8:	230a0793          	addi	a5,s4,560
    40ec:	06010713          	addi	a4,sp,96
    40f0:	00e78a33          	add	s4,a5,a4
    40f4:	000030ef          	jal	ra,70f4 <__floatsidf>
    40f8:	000117b7          	lui	a5,0x11
    40fc:	9c87a603          	lw	a2,-1592(a5) # 109c8 <__clz_tab+0x318>
    4100:	9cc7a683          	lw	a3,-1588(a5)
    4104:	068020ef          	jal	ra,616c <__muldf3>
    4108:	00050613          	mv	a2,a0
    410c:	00058693          	mv	a3,a1
    4110:	00048513          	mv	a0,s1
    4114:	00040593          	mv	a1,s0
    4118:	720020ef          	jal	ra,6838 <__subdf3>
    411c:	759020ef          	jal	ra,7074 <__fixdfsi>
    4120:	faaa2823          	sw	a0,-80(s4)
    4124:	00190793          	addi	a5,s2,1
    4128:	00f12023          	sw	a5,0(sp)
    412c:	018a8713          	addi	a4,s5,24
    4130:	00e12c23          	sw	a4,24(sp)
    4134:	00279793          	slli	a5,a5,0x2
    4138:	23078793          	addi	a5,a5,560
    413c:	06010713          	addi	a4,sp,96
    4140:	00e787b3          	add	a5,a5,a4
    4144:	fb37a823          	sw	s3,-80(a5)
    4148:	e7dff06f          	j	3fc4 <__kernel_rem_pio2+0x6dc>
    414c:	00291993          	slli	s3,s2,0x2
    4150:	23098793          	addi	a5,s3,560
    4154:	06010713          	addi	a4,sp,96
    4158:	00e789b3          	add	s3,a5,a4
    415c:	00048513          	mv	a0,s1
    4160:	00040593          	mv	a1,s0
    4164:	711020ef          	jal	ra,7074 <__fixdfsi>
    4168:	faa9a823          	sw	a0,-80(s3)
    416c:	01212023          	sw	s2,0(sp)
    4170:	e55ff06f          	j	3fc4 <__kernel_rem_pio2+0x6dc>
    4174:	00000493          	li	s1,0
    4178:	00000413          	li	s0,0
    417c:	009c2023          	sw	s1,0(s8)
    4180:	008c2223          	sw	s0,4(s8)
    4184:	001b0793          	addi	a5,s6,1
    4188:	008c0c13          	addi	s8,s8,8
    418c:	ff8b8b93          	addi	s7,s7,-8
    4190:	119b0463          	beq	s6,s9,4298 <__kernel_rem_pio2+0x9b0>
    4194:	00078b13          	mv	s6,a5
    4198:	fc0d4ee3          	bltz	s10,4174 <__kernel_rem_pio2+0x88c>
    419c:	000b0a93          	mv	s5,s6
    41a0:	00000493          	li	s1,0
    41a4:	00000413          	li	s0,0
    41a8:	fc0b4ae3          	bltz	s6,417c <__kernel_rem_pio2+0x894>
    41ac:	00812783          	lw	a5,8(sp)
    41b0:	01078a13          	addi	s4,a5,16
    41b4:	000b8993          	mv	s3,s7
    41b8:	00000493          	li	s1,0
    41bc:	00000413          	li	s0,0
    41c0:	00000913          	li	s2,0
    41c4:	0009a603          	lw	a2,0(s3)
    41c8:	0049a683          	lw	a3,4(s3)
    41cc:	000a2503          	lw	a0,0(s4)
    41d0:	004a2583          	lw	a1,4(s4)
    41d4:	799010ef          	jal	ra,616c <__muldf3>
    41d8:	00050613          	mv	a2,a0
    41dc:	00058693          	mv	a3,a1
    41e0:	00048513          	mv	a0,s1
    41e4:	00040593          	mv	a1,s0
    41e8:	575000ef          	jal	ra,4f5c <__adddf3>
    41ec:	00050493          	mv	s1,a0
    41f0:	00058413          	mv	s0,a1
    41f4:	00190913          	addi	s2,s2,1
    41f8:	f92d42e3          	blt	s10,s2,417c <__kernel_rem_pio2+0x894>
    41fc:	008a0a13          	addi	s4,s4,8
    4200:	00898993          	addi	s3,s3,8
    4204:	fd2ad0e3          	bge	s5,s2,41c4 <__kernel_rem_pio2+0x8dc>
    4208:	f75ff06f          	j	417c <__kernel_rem_pio2+0x894>
    420c:	00000713          	li	a4,0
    4210:	00000793          	li	a5,0
    4214:	3380006f          	j	454c <__kernel_rem_pio2+0xc64>
    4218:	00000713          	li	a4,0
    421c:	00000793          	li	a5,0
    4220:	2740006f          	j	4494 <__kernel_rem_pio2+0xbac>
    4224:	800006b7          	lui	a3,0x80000
    4228:	10012583          	lw	a1,256(sp)
    422c:	10412603          	lw	a2,260(sp)
    4230:	00d64633          	xor	a2,a2,a3
    4234:	04012503          	lw	a0,64(sp)
    4238:	00b52023          	sw	a1,0(a0)
    423c:	00c52223          	sw	a2,4(a0)
    4240:	10812583          	lw	a1,264(sp)
    4244:	10c12603          	lw	a2,268(sp)
    4248:	00d64633          	xor	a2,a2,a3
    424c:	00b52423          	sw	a1,8(a0)
    4250:	00c52623          	sw	a2,12(a0)
    4254:	00e52823          	sw	a4,16(a0)
    4258:	00f6c6b3          	xor	a3,a3,a5
    425c:	00d52a23          	sw	a3,20(a0)
    4260:	0ac0006f          	j	430c <__kernel_rem_pio2+0xa24>
    4264:	04012583          	lw	a1,64(sp)
    4268:	00e5a023          	sw	a4,0(a1)
    426c:	00f5a223          	sw	a5,4(a1)
    4270:	00070613          	mv	a2,a4
    4274:	00078693          	mv	a3,a5
    4278:	10012503          	lw	a0,256(sp)
    427c:	10412583          	lw	a1,260(sp)
    4280:	5b8020ef          	jal	ra,6838 <__subdf3>
    4284:	00050713          	mv	a4,a0
    4288:	00058793          	mv	a5,a1
    428c:	00012683          	lw	a3,0(sp)
    4290:	2ed04e63          	bgtz	a3,458c <__kernel_rem_pio2+0xca4>
    4294:	33c0006f          	j	45d0 <__kernel_rem_pio2+0xce8>
    4298:	02012c83          	lw	s9,32(sp)
    429c:	00200793          	li	a5,2
    42a0:	04412703          	lw	a4,68(sp)
    42a4:	0ae7c463          	blt	a5,a4,434c <__kernel_rem_pio2+0xa64>
    42a8:	26e04063          	bgtz	a4,4508 <__kernel_rem_pio2+0xc20>
    42ac:	06071063          	bnez	a4,430c <__kernel_rem_pio2+0xa24>
    42b0:	10010793          	addi	a5,sp,256
    42b4:	01c12703          	lw	a4,28(sp)
    42b8:	00e78433          	add	s0,a5,a4
    42bc:	00000713          	li	a4,0
    42c0:	00000793          	li	a5,0
    42c4:	00042603          	lw	a2,0(s0)
    42c8:	00442683          	lw	a3,4(s0)
    42cc:	00070513          	mv	a0,a4
    42d0:	00078593          	mv	a1,a5
    42d4:	489000ef          	jal	ra,4f5c <__adddf3>
    42d8:	00050713          	mv	a4,a0
    42dc:	00058793          	mv	a5,a1
    42e0:	00040693          	mv	a3,s0
    42e4:	ff840413          	addi	s0,s0,-8
    42e8:	fdb69ee3          	bne	a3,s11,42c4 <__kernel_rem_pio2+0x9dc>
    42ec:	01412683          	lw	a3,20(sp)
    42f0:	00068663          	beqz	a3,42fc <__kernel_rem_pio2+0xa14>
    42f4:	800006b7          	lui	a3,0x80000
    42f8:	00f6c7b3          	xor	a5,a3,a5
    42fc:	00078693          	mv	a3,a5
    4300:	04012783          	lw	a5,64(sp)
    4304:	00e7a023          	sw	a4,0(a5)
    4308:	00d7a223          	sw	a3,4(a5)
    430c:	007cf513          	andi	a0,s9,7
    4310:	2cc12083          	lw	ra,716(sp)
    4314:	2c812403          	lw	s0,712(sp)
    4318:	2c412483          	lw	s1,708(sp)
    431c:	2c012903          	lw	s2,704(sp)
    4320:	2bc12983          	lw	s3,700(sp)
    4324:	2b812a03          	lw	s4,696(sp)
    4328:	2b412a83          	lw	s5,692(sp)
    432c:	2b012b03          	lw	s6,688(sp)
    4330:	2ac12b83          	lw	s7,684(sp)
    4334:	2a812c03          	lw	s8,680(sp)
    4338:	2a412c83          	lw	s9,676(sp)
    433c:	2a012d03          	lw	s10,672(sp)
    4340:	29c12d83          	lw	s11,668(sp)
    4344:	2d010113          	addi	sp,sp,720
    4348:	00008067          	ret
    434c:	00300793          	li	a5,3
    4350:	04412703          	lw	a4,68(sp)
    4354:	faf71ce3          	bne	a4,a5,430c <__kernel_rem_pio2+0xa24>
    4358:	00012783          	lw	a5,0(sp)
    435c:	08f05063          	blez	a5,43dc <__kernel_rem_pio2+0xaf4>
    4360:	10010b93          	addi	s7,sp,256
    4364:	00012783          	lw	a5,0(sp)
    4368:	00379a13          	slli	s4,a5,0x3
    436c:	014b8a33          	add	s4,s7,s4
    4370:	000c8a93          	mv	s5,s9
    4374:	ff8a2c03          	lw	s8,-8(s4)
    4378:	ffca2c83          	lw	s9,-4(s4)
    437c:	000a2903          	lw	s2,0(s4)
    4380:	004a2983          	lw	s3,4(s4)
    4384:	00090613          	mv	a2,s2
    4388:	00098693          	mv	a3,s3
    438c:	000c0513          	mv	a0,s8
    4390:	000c8593          	mv	a1,s9
    4394:	3c9000ef          	jal	ra,4f5c <__adddf3>
    4398:	00050493          	mv	s1,a0
    439c:	00058413          	mv	s0,a1
    43a0:	00050613          	mv	a2,a0
    43a4:	00058693          	mv	a3,a1
    43a8:	000c0513          	mv	a0,s8
    43ac:	000c8593          	mv	a1,s9
    43b0:	488020ef          	jal	ra,6838 <__subdf3>
    43b4:	00090613          	mv	a2,s2
    43b8:	00098693          	mv	a3,s3
    43bc:	3a1000ef          	jal	ra,4f5c <__adddf3>
    43c0:	00aa2023          	sw	a0,0(s4)
    43c4:	00ba2223          	sw	a1,4(s4)
    43c8:	fe9a2c23          	sw	s1,-8(s4)
    43cc:	fe8a2e23          	sw	s0,-4(s4)
    43d0:	ff8a0a13          	addi	s4,s4,-8
    43d4:	fb4b90e3          	bne	s7,s4,4374 <__kernel_rem_pio2+0xa8c>
    43d8:	000a8c93          	mv	s9,s5
    43dc:	00100793          	li	a5,1
    43e0:	00012703          	lw	a4,0(sp)
    43e4:	e2e7dae3          	bge	a5,a4,4218 <__kernel_rem_pio2+0x930>
    43e8:	00371793          	slli	a5,a4,0x3
    43ec:	10010713          	addi	a4,sp,256
    43f0:	00f70a33          	add	s4,a4,a5
    43f4:	10810a93          	addi	s5,sp,264
    43f8:	000a0b13          	mv	s6,s4
    43fc:	000c8b93          	mv	s7,s9
    4400:	ff8b2c03          	lw	s8,-8(s6)
    4404:	ffcb2c83          	lw	s9,-4(s6)
    4408:	000b2903          	lw	s2,0(s6)
    440c:	004b2983          	lw	s3,4(s6)
    4410:	00090613          	mv	a2,s2
    4414:	00098693          	mv	a3,s3
    4418:	000c0513          	mv	a0,s8
    441c:	000c8593          	mv	a1,s9
    4420:	33d000ef          	jal	ra,4f5c <__adddf3>
    4424:	00050493          	mv	s1,a0
    4428:	00058413          	mv	s0,a1
    442c:	00050613          	mv	a2,a0
    4430:	00058693          	mv	a3,a1
    4434:	000c0513          	mv	a0,s8
    4438:	000c8593          	mv	a1,s9
    443c:	3fc020ef          	jal	ra,6838 <__subdf3>
    4440:	00090613          	mv	a2,s2
    4444:	00098693          	mv	a3,s3
    4448:	315000ef          	jal	ra,4f5c <__adddf3>
    444c:	00ab2023          	sw	a0,0(s6)
    4450:	00bb2223          	sw	a1,4(s6)
    4454:	fe9b2c23          	sw	s1,-8(s6)
    4458:	fe8b2e23          	sw	s0,-4(s6)
    445c:	ff8b0b13          	addi	s6,s6,-8
    4460:	fb5b10e3          	bne	s6,s5,4400 <__kernel_rem_pio2+0xb18>
    4464:	000b8c93          	mv	s9,s7
    4468:	00000713          	li	a4,0
    446c:	00000793          	li	a5,0
    4470:	000a2603          	lw	a2,0(s4)
    4474:	004a2683          	lw	a3,4(s4)
    4478:	00070513          	mv	a0,a4
    447c:	00078593          	mv	a1,a5
    4480:	2dd000ef          	jal	ra,4f5c <__adddf3>
    4484:	00050713          	mv	a4,a0
    4488:	00058793          	mv	a5,a1
    448c:	ff8a0a13          	addi	s4,s4,-8
    4490:	ff5a10e3          	bne	s4,s5,4470 <__kernel_rem_pio2+0xb88>
    4494:	01412683          	lw	a3,20(sp)
    4498:	d80696e3          	bnez	a3,4224 <__kernel_rem_pio2+0x93c>
    449c:	10012603          	lw	a2,256(sp)
    44a0:	10412683          	lw	a3,260(sp)
    44a4:	04012583          	lw	a1,64(sp)
    44a8:	00c5a023          	sw	a2,0(a1)
    44ac:	00d5a223          	sw	a3,4(a1)
    44b0:	10812603          	lw	a2,264(sp)
    44b4:	10c12683          	lw	a3,268(sp)
    44b8:	00c5a423          	sw	a2,8(a1)
    44bc:	00d5a623          	sw	a3,12(a1)
    44c0:	00e5a823          	sw	a4,16(a1)
    44c4:	00f5aa23          	sw	a5,20(a1)
    44c8:	e45ff06f          	j	430c <__kernel_rem_pio2+0xa24>
    44cc:	00200793          	li	a5,2
    44d0:	04412683          	lw	a3,68(sp)
    44d4:	00d7cc63          	blt	a5,a3,44ec <__kernel_rem_pio2+0xc04>
    44d8:	d2d04ae3          	bgtz	a3,420c <__kernel_rem_pio2+0x924>
    44dc:	00000713          	li	a4,0
    44e0:	00000793          	li	a5,0
    44e4:	e00684e3          	beqz	a3,42ec <__kernel_rem_pio2+0xa04>
    44e8:	e25ff06f          	j	430c <__kernel_rem_pio2+0xa24>
    44ec:	00300793          	li	a5,3
    44f0:	04412703          	lw	a4,68(sp)
    44f4:	eef704e3          	beq	a4,a5,43dc <__kernel_rem_pio2+0xaf4>
    44f8:	e15ff06f          	j	430c <__kernel_rem_pio2+0xa24>
    44fc:	00190c13          	addi	s8,s2,1
    4500:	000c0c93          	mv	s9,s8
    4504:	f6cff06f          	j	3c70 <__kernel_rem_pio2+0x388>
    4508:	00012783          	lw	a5,0(sp)
    450c:	00379413          	slli	s0,a5,0x3
    4510:	10010793          	addi	a5,sp,256
    4514:	00878433          	add	s0,a5,s0
    4518:	00078493          	mv	s1,a5
    451c:	00000713          	li	a4,0
    4520:	00000793          	li	a5,0
    4524:	00042603          	lw	a2,0(s0)
    4528:	00442683          	lw	a3,4(s0)
    452c:	00070513          	mv	a0,a4
    4530:	00078593          	mv	a1,a5
    4534:	229000ef          	jal	ra,4f5c <__adddf3>
    4538:	00050713          	mv	a4,a0
    453c:	00058793          	mv	a5,a1
    4540:	00040693          	mv	a3,s0
    4544:	ff840413          	addi	s0,s0,-8
    4548:	fc969ee3          	bne	a3,s1,4524 <__kernel_rem_pio2+0xc3c>
    454c:	01412683          	lw	a3,20(sp)
    4550:	d0068ae3          	beqz	a3,4264 <__kernel_rem_pio2+0x97c>
    4554:	04012603          	lw	a2,64(sp)
    4558:	00e62023          	sw	a4,0(a2)
    455c:	800006b7          	lui	a3,0x80000
    4560:	00f6c6b3          	xor	a3,a3,a5
    4564:	00d62223          	sw	a3,4(a2)
    4568:	00070613          	mv	a2,a4
    456c:	00078693          	mv	a3,a5
    4570:	10012503          	lw	a0,256(sp)
    4574:	10412583          	lw	a1,260(sp)
    4578:	2c0020ef          	jal	ra,6838 <__subdf3>
    457c:	00050713          	mv	a4,a0
    4580:	00058793          	mv	a5,a1
    4584:	00012683          	lw	a3,0(sp)
    4588:	04d05063          	blez	a3,45c8 <__kernel_rem_pio2+0xce0>
    458c:	10810493          	addi	s1,sp,264
    4590:	00100413          	li	s0,1
    4594:	00012903          	lw	s2,0(sp)
    4598:	0004a603          	lw	a2,0(s1)
    459c:	0044a683          	lw	a3,4(s1)
    45a0:	00070513          	mv	a0,a4
    45a4:	00078593          	mv	a1,a5
    45a8:	1b5000ef          	jal	ra,4f5c <__adddf3>
    45ac:	00050713          	mv	a4,a0
    45b0:	00058793          	mv	a5,a1
    45b4:	00140413          	addi	s0,s0,1
    45b8:	00848493          	addi	s1,s1,8
    45bc:	fc895ee3          	bge	s2,s0,4598 <__kernel_rem_pio2+0xcb0>
    45c0:	01412683          	lw	a3,20(sp)
    45c4:	00068663          	beqz	a3,45d0 <__kernel_rem_pio2+0xce8>
    45c8:	800006b7          	lui	a3,0x80000
    45cc:	00f6c7b3          	xor	a5,a3,a5
    45d0:	00078693          	mv	a3,a5
    45d4:	04012783          	lw	a5,64(sp)
    45d8:	00e7a423          	sw	a4,8(a5)
    45dc:	00d7a623          	sw	a3,12(a5)
    45e0:	d2dff06f          	j	430c <__kernel_rem_pio2+0xa24>

000045e4 <__kernel_sin>:
    45e4:	fc010113          	addi	sp,sp,-64
    45e8:	02112e23          	sw	ra,60(sp)
    45ec:	02812c23          	sw	s0,56(sp)
    45f0:	02912a23          	sw	s1,52(sp)
    45f4:	03212823          	sw	s2,48(sp)
    45f8:	03312623          	sw	s3,44(sp)
    45fc:	03412423          	sw	s4,40(sp)
    4600:	03512223          	sw	s5,36(sp)
    4604:	03612023          	sw	s6,32(sp)
    4608:	01712e23          	sw	s7,28(sp)
    460c:	01812c23          	sw	s8,24(sp)
    4610:	01912a23          	sw	s9,20(sp)
    4614:	01a12823          	sw	s10,16(sp)
    4618:	01b12623          	sw	s11,12(sp)
    461c:	00050993          	mv	s3,a0
    4620:	00058413          	mv	s0,a1
    4624:	00060a93          	mv	s5,a2
    4628:	00068a13          	mv	s4,a3
    462c:	00070b13          	mv	s6,a4
    4630:	00159793          	slli	a5,a1,0x1
    4634:	0017d793          	srli	a5,a5,0x1
    4638:	3e400737          	lui	a4,0x3e400
    463c:	00e7de63          	bge	a5,a4,4658 <__kernel_sin+0x74>
    4640:	00098513          	mv	a0,s3
    4644:	00040593          	mv	a1,s0
    4648:	22d020ef          	jal	ra,7074 <__fixdfsi>
    464c:	00098813          	mv	a6,s3
    4650:	00040793          	mv	a5,s0
    4654:	10050463          	beqz	a0,475c <__kernel_sin+0x178>
    4658:	00098613          	mv	a2,s3
    465c:	00040693          	mv	a3,s0
    4660:	00098513          	mv	a0,s3
    4664:	00040593          	mv	a1,s0
    4668:	305010ef          	jal	ra,616c <__muldf3>
    466c:	00050913          	mv	s2,a0
    4670:	00058493          	mv	s1,a1
    4674:	00050613          	mv	a2,a0
    4678:	00058693          	mv	a3,a1
    467c:	00098513          	mv	a0,s3
    4680:	00040593          	mv	a1,s0
    4684:	2e9010ef          	jal	ra,616c <__muldf3>
    4688:	00050c13          	mv	s8,a0
    468c:	00058b93          	mv	s7,a1
    4690:	000117b7          	lui	a5,0x11
    4694:	a207a603          	lw	a2,-1504(a5) # 10a20 <__clz_tab+0x370>
    4698:	a247a683          	lw	a3,-1500(a5)
    469c:	00090513          	mv	a0,s2
    46a0:	00048593          	mv	a1,s1
    46a4:	2c9010ef          	jal	ra,616c <__muldf3>
    46a8:	000117b7          	lui	a5,0x11
    46ac:	a287a603          	lw	a2,-1496(a5) # 10a28 <__clz_tab+0x378>
    46b0:	a2c7a683          	lw	a3,-1492(a5)
    46b4:	184020ef          	jal	ra,6838 <__subdf3>
    46b8:	00090613          	mv	a2,s2
    46bc:	00048693          	mv	a3,s1
    46c0:	2ad010ef          	jal	ra,616c <__muldf3>
    46c4:	000117b7          	lui	a5,0x11
    46c8:	a307a603          	lw	a2,-1488(a5) # 10a30 <__clz_tab+0x380>
    46cc:	a347a683          	lw	a3,-1484(a5)
    46d0:	08d000ef          	jal	ra,4f5c <__adddf3>
    46d4:	00090613          	mv	a2,s2
    46d8:	00048693          	mv	a3,s1
    46dc:	291010ef          	jal	ra,616c <__muldf3>
    46e0:	000117b7          	lui	a5,0x11
    46e4:	a387a603          	lw	a2,-1480(a5) # 10a38 <__clz_tab+0x388>
    46e8:	a3c7a683          	lw	a3,-1476(a5)
    46ec:	14c020ef          	jal	ra,6838 <__subdf3>
    46f0:	00090613          	mv	a2,s2
    46f4:	00048693          	mv	a3,s1
    46f8:	275010ef          	jal	ra,616c <__muldf3>
    46fc:	000117b7          	lui	a5,0x11
    4700:	a407a603          	lw	a2,-1472(a5) # 10a40 <__clz_tab+0x390>
    4704:	a447a683          	lw	a3,-1468(a5)
    4708:	055000ef          	jal	ra,4f5c <__adddf3>
    470c:	00050d13          	mv	s10,a0
    4710:	00058c93          	mv	s9,a1
    4714:	080b1663          	bnez	s6,47a0 <__kernel_sin+0x1bc>
    4718:	00050613          	mv	a2,a0
    471c:	00058693          	mv	a3,a1
    4720:	00090513          	mv	a0,s2
    4724:	00048593          	mv	a1,s1
    4728:	245010ef          	jal	ra,616c <__muldf3>
    472c:	000117b7          	lui	a5,0x11
    4730:	a487a603          	lw	a2,-1464(a5) # 10a48 <__clz_tab+0x398>
    4734:	a4c7a683          	lw	a3,-1460(a5)
    4738:	100020ef          	jal	ra,6838 <__subdf3>
    473c:	000c0613          	mv	a2,s8
    4740:	000b8693          	mv	a3,s7
    4744:	229010ef          	jal	ra,616c <__muldf3>
    4748:	00098613          	mv	a2,s3
    474c:	00040693          	mv	a3,s0
    4750:	00d000ef          	jal	ra,4f5c <__adddf3>
    4754:	00050813          	mv	a6,a0
    4758:	00058793          	mv	a5,a1
    475c:	00080513          	mv	a0,a6
    4760:	00078593          	mv	a1,a5
    4764:	03c12083          	lw	ra,60(sp)
    4768:	03812403          	lw	s0,56(sp)
    476c:	03412483          	lw	s1,52(sp)
    4770:	03012903          	lw	s2,48(sp)
    4774:	02c12983          	lw	s3,44(sp)
    4778:	02812a03          	lw	s4,40(sp)
    477c:	02412a83          	lw	s5,36(sp)
    4780:	02012b03          	lw	s6,32(sp)
    4784:	01c12b83          	lw	s7,28(sp)
    4788:	01812c03          	lw	s8,24(sp)
    478c:	01412c83          	lw	s9,20(sp)
    4790:	01012d03          	lw	s10,16(sp)
    4794:	00c12d83          	lw	s11,12(sp)
    4798:	04010113          	addi	sp,sp,64
    479c:	00008067          	ret
    47a0:	000117b7          	lui	a5,0x11
    47a4:	8287a603          	lw	a2,-2008(a5) # 10828 <__clz_tab+0x178>
    47a8:	82c7a683          	lw	a3,-2004(a5)
    47ac:	000a8513          	mv	a0,s5
    47b0:	000a0593          	mv	a1,s4
    47b4:	1b9010ef          	jal	ra,616c <__muldf3>
    47b8:	00050d93          	mv	s11,a0
    47bc:	00058b13          	mv	s6,a1
    47c0:	000d0613          	mv	a2,s10
    47c4:	000c8693          	mv	a3,s9
    47c8:	000c0513          	mv	a0,s8
    47cc:	000b8593          	mv	a1,s7
    47d0:	19d010ef          	jal	ra,616c <__muldf3>
    47d4:	00050613          	mv	a2,a0
    47d8:	00058693          	mv	a3,a1
    47dc:	000d8513          	mv	a0,s11
    47e0:	000b0593          	mv	a1,s6
    47e4:	054020ef          	jal	ra,6838 <__subdf3>
    47e8:	00090613          	mv	a2,s2
    47ec:	00048693          	mv	a3,s1
    47f0:	17d010ef          	jal	ra,616c <__muldf3>
    47f4:	000a8613          	mv	a2,s5
    47f8:	000a0693          	mv	a3,s4
    47fc:	03c020ef          	jal	ra,6838 <__subdf3>
    4800:	00050913          	mv	s2,a0
    4804:	00058493          	mv	s1,a1
    4808:	000117b7          	lui	a5,0x11
    480c:	a487a603          	lw	a2,-1464(a5) # 10a48 <__clz_tab+0x398>
    4810:	a4c7a683          	lw	a3,-1460(a5)
    4814:	000c0513          	mv	a0,s8
    4818:	000b8593          	mv	a1,s7
    481c:	151010ef          	jal	ra,616c <__muldf3>
    4820:	00050613          	mv	a2,a0
    4824:	00058693          	mv	a3,a1
    4828:	00090513          	mv	a0,s2
    482c:	00048593          	mv	a1,s1
    4830:	72c000ef          	jal	ra,4f5c <__adddf3>
    4834:	00050613          	mv	a2,a0
    4838:	00058693          	mv	a3,a1
    483c:	00098513          	mv	a0,s3
    4840:	00040593          	mv	a1,s0
    4844:	7f5010ef          	jal	ra,6838 <__subdf3>
    4848:	00050813          	mv	a6,a0
    484c:	00058793          	mv	a5,a1
    4850:	f0dff06f          	j	475c <__kernel_sin+0x178>

00004854 <with_errno>:
    4854:	ff010113          	addi	sp,sp,-16
    4858:	00112623          	sw	ra,12(sp)
    485c:	00812423          	sw	s0,8(sp)
    4860:	00912223          	sw	s1,4(sp)
    4864:	01212023          	sw	s2,0(sp)
    4868:	00050493          	mv	s1,a0
    486c:	00058413          	mv	s0,a1
    4870:	00060913          	mv	s2,a2
    4874:	559070ef          	jal	ra,c5cc <__errno>
    4878:	01252023          	sw	s2,0(a0)
    487c:	00048513          	mv	a0,s1
    4880:	00040593          	mv	a1,s0
    4884:	00c12083          	lw	ra,12(sp)
    4888:	00812403          	lw	s0,8(sp)
    488c:	00412483          	lw	s1,4(sp)
    4890:	00012903          	lw	s2,0(sp)
    4894:	01010113          	addi	sp,sp,16
    4898:	00008067          	ret

0000489c <xflow>:
    489c:	fe010113          	addi	sp,sp,-32
    48a0:	00112e23          	sw	ra,28(sp)
    48a4:	00060793          	mv	a5,a2
    48a8:	04050263          	beqz	a0,48ec <xflow+0x50>
    48ac:	00058613          	mv	a2,a1
    48b0:	80000737          	lui	a4,0x80000
    48b4:	00f746b3          	xor	a3,a4,a5
    48b8:	00c12423          	sw	a2,8(sp)
    48bc:	00d12623          	sw	a3,12(sp)
    48c0:	00812603          	lw	a2,8(sp)
    48c4:	00c12683          	lw	a3,12(sp)
    48c8:	00058813          	mv	a6,a1
    48cc:	00080513          	mv	a0,a6
    48d0:	00078593          	mv	a1,a5
    48d4:	099010ef          	jal	ra,616c <__muldf3>
    48d8:	02200613          	li	a2,34
    48dc:	f79ff0ef          	jal	ra,4854 <with_errno>
    48e0:	01c12083          	lw	ra,28(sp)
    48e4:	02010113          	addi	sp,sp,32
    48e8:	00008067          	ret
    48ec:	00058613          	mv	a2,a1
    48f0:	00078693          	mv	a3,a5
    48f4:	fc5ff06f          	j	48b8 <xflow+0x1c>

000048f8 <__math_uflow>:
    48f8:	ff010113          	addi	sp,sp,-16
    48fc:	00112623          	sw	ra,12(sp)
    4900:	000117b7          	lui	a5,0x11
    4904:	a507a583          	lw	a1,-1456(a5) # 10a50 <__clz_tab+0x3a0>
    4908:	a547a603          	lw	a2,-1452(a5)
    490c:	f91ff0ef          	jal	ra,489c <xflow>
    4910:	00c12083          	lw	ra,12(sp)
    4914:	01010113          	addi	sp,sp,16
    4918:	00008067          	ret

0000491c <__math_may_uflow>:
    491c:	ff010113          	addi	sp,sp,-16
    4920:	00112623          	sw	ra,12(sp)
    4924:	000117b7          	lui	a5,0x11
    4928:	a587a583          	lw	a1,-1448(a5) # 10a58 <__clz_tab+0x3a8>
    492c:	a5c7a603          	lw	a2,-1444(a5)
    4930:	f6dff0ef          	jal	ra,489c <xflow>
    4934:	00c12083          	lw	ra,12(sp)
    4938:	01010113          	addi	sp,sp,16
    493c:	00008067          	ret

00004940 <__math_oflow>:
    4940:	ff010113          	addi	sp,sp,-16
    4944:	00112623          	sw	ra,12(sp)
    4948:	000117b7          	lui	a5,0x11
    494c:	a607a583          	lw	a1,-1440(a5) # 10a60 <__clz_tab+0x3b0>
    4950:	a647a603          	lw	a2,-1436(a5)
    4954:	f49ff0ef          	jal	ra,489c <xflow>
    4958:	00c12083          	lw	ra,12(sp)
    495c:	01010113          	addi	sp,sp,16
    4960:	00008067          	ret

00004964 <__math_divzero>:
    4964:	fe010113          	addi	sp,sp,-32
    4968:	00112e23          	sw	ra,28(sp)
    496c:	04051063          	bnez	a0,49ac <__math_divzero+0x48>
    4970:	000107b7          	lui	a5,0x10
    4974:	7c07a703          	lw	a4,1984(a5) # 107c0 <__clz_tab+0x110>
    4978:	7c47a783          	lw	a5,1988(a5)
    497c:	00e12423          	sw	a4,8(sp)
    4980:	00f12623          	sw	a5,12(sp)
    4984:	00812503          	lw	a0,8(sp)
    4988:	00c12583          	lw	a1,12(sp)
    498c:	00000613          	li	a2,0
    4990:	00000693          	li	a3,0
    4994:	5a5000ef          	jal	ra,5738 <__divdf3>
    4998:	02200613          	li	a2,34
    499c:	eb9ff0ef          	jal	ra,4854 <with_errno>
    49a0:	01c12083          	lw	ra,28(sp)
    49a4:	02010113          	addi	sp,sp,32
    49a8:	00008067          	ret
    49ac:	000117b7          	lui	a5,0x11
    49b0:	8187a703          	lw	a4,-2024(a5) # 10818 <__clz_tab+0x168>
    49b4:	81c7a783          	lw	a5,-2020(a5)
    49b8:	fc5ff06f          	j	497c <__math_divzero+0x18>

000049bc <__math_invalid>:
    49bc:	fe010113          	addi	sp,sp,-32
    49c0:	00112e23          	sw	ra,28(sp)
    49c4:	00812c23          	sw	s0,24(sp)
    49c8:	00912a23          	sw	s1,20(sp)
    49cc:	01212823          	sw	s2,16(sp)
    49d0:	01312623          	sw	s3,12(sp)
    49d4:	00050993          	mv	s3,a0
    49d8:	00058913          	mv	s2,a1
    49dc:	00050613          	mv	a2,a0
    49e0:	00058693          	mv	a3,a1
    49e4:	655010ef          	jal	ra,6838 <__subdf3>
    49e8:	00050613          	mv	a2,a0
    49ec:	00058693          	mv	a3,a1
    49f0:	549000ef          	jal	ra,5738 <__divdf3>
    49f4:	00050493          	mv	s1,a0
    49f8:	00058413          	mv	s0,a1
    49fc:	00098613          	mv	a2,s3
    4a00:	00090693          	mv	a3,s2
    4a04:	00098513          	mv	a0,s3
    4a08:	00090593          	mv	a1,s2
    4a0c:	61c020ef          	jal	ra,7028 <__unorddf2>
    4a10:	00051e63          	bnez	a0,4a2c <__math_invalid+0x70>
    4a14:	02100613          	li	a2,33
    4a18:	00048513          	mv	a0,s1
    4a1c:	00040593          	mv	a1,s0
    4a20:	e35ff0ef          	jal	ra,4854 <with_errno>
    4a24:	00050493          	mv	s1,a0
    4a28:	00058413          	mv	s0,a1
    4a2c:	00048513          	mv	a0,s1
    4a30:	00040593          	mv	a1,s0
    4a34:	01c12083          	lw	ra,28(sp)
    4a38:	01812403          	lw	s0,24(sp)
    4a3c:	01412483          	lw	s1,20(sp)
    4a40:	01012903          	lw	s2,16(sp)
    4a44:	00c12983          	lw	s3,12(sp)
    4a48:	02010113          	addi	sp,sp,32
    4a4c:	00008067          	ret

00004a50 <__math_check_uflow>:
    4a50:	ff010113          	addi	sp,sp,-16
    4a54:	00112623          	sw	ra,12(sp)
    4a58:	00812423          	sw	s0,8(sp)
    4a5c:	00912223          	sw	s1,4(sp)
    4a60:	00050493          	mv	s1,a0
    4a64:	00058413          	mv	s0,a1
    4a68:	00000613          	li	a2,0
    4a6c:	00000693          	li	a3,0
    4a70:	4a8010ef          	jal	ra,5f18 <__eqdf2>
    4a74:	02050063          	beqz	a0,4a94 <__math_check_uflow+0x44>
    4a78:	00048513          	mv	a0,s1
    4a7c:	00040593          	mv	a1,s0
    4a80:	00c12083          	lw	ra,12(sp)
    4a84:	00812403          	lw	s0,8(sp)
    4a88:	00412483          	lw	s1,4(sp)
    4a8c:	01010113          	addi	sp,sp,16
    4a90:	00008067          	ret
    4a94:	02200613          	li	a2,34
    4a98:	00048513          	mv	a0,s1
    4a9c:	00040593          	mv	a1,s0
    4aa0:	db5ff0ef          	jal	ra,4854 <with_errno>
    4aa4:	00050493          	mv	s1,a0
    4aa8:	00058413          	mv	s0,a1
    4aac:	fcdff06f          	j	4a78 <__math_check_uflow+0x28>

00004ab0 <__math_check_oflow>:
    4ab0:	ff010113          	addi	sp,sp,-16
    4ab4:	00112623          	sw	ra,12(sp)
    4ab8:	00812423          	sw	s0,8(sp)
    4abc:	00912223          	sw	s1,4(sp)
    4ac0:	01212023          	sw	s2,0(sp)
    4ac4:	00050413          	mv	s0,a0
    4ac8:	00058493          	mv	s1,a1
    4acc:	00159913          	slli	s2,a1,0x1
    4ad0:	00195913          	srli	s2,s2,0x1
    4ad4:	000117b7          	lui	a5,0x11
    4ad8:	a687a603          	lw	a2,-1432(a5) # 10a68 <__clz_tab+0x3b8>
    4adc:	a6c7a683          	lw	a3,-1428(a5)
    4ae0:	00040513          	mv	a0,s0
    4ae4:	00090593          	mv	a1,s2
    4ae8:	540020ef          	jal	ra,7028 <__unorddf2>
    4aec:	02051063          	bnez	a0,4b0c <__math_check_oflow+0x5c>
    4af0:	000117b7          	lui	a5,0x11
    4af4:	a687a603          	lw	a2,-1432(a5) # 10a68 <__clz_tab+0x3b8>
    4af8:	a6c7a683          	lw	a3,-1428(a5)
    4afc:	00040513          	mv	a0,s0
    4b00:	00090593          	mv	a1,s2
    4b04:	584010ef          	jal	ra,6088 <__ledf2>
    4b08:	02a04263          	bgtz	a0,4b2c <__math_check_oflow+0x7c>
    4b0c:	00040513          	mv	a0,s0
    4b10:	00048593          	mv	a1,s1
    4b14:	00c12083          	lw	ra,12(sp)
    4b18:	00812403          	lw	s0,8(sp)
    4b1c:	00412483          	lw	s1,4(sp)
    4b20:	00012903          	lw	s2,0(sp)
    4b24:	01010113          	addi	sp,sp,16
    4b28:	00008067          	ret
    4b2c:	02200613          	li	a2,34
    4b30:	00040513          	mv	a0,s0
    4b34:	00048593          	mv	a1,s1
    4b38:	d1dff0ef          	jal	ra,4854 <with_errno>
    4b3c:	00050413          	mv	s0,a0
    4b40:	00058493          	mv	s1,a1
    4b44:	fc9ff06f          	j	4b0c <__math_check_oflow+0x5c>

00004b48 <fabs>:
    4b48:	00159593          	slli	a1,a1,0x1
    4b4c:	00050713          	mv	a4,a0
    4b50:	0015d793          	srli	a5,a1,0x1
    4b54:	00070513          	mv	a0,a4
    4b58:	00078593          	mv	a1,a5
    4b5c:	00008067          	ret

00004b60 <finite>:
    4b60:	00159513          	slli	a0,a1,0x1
    4b64:	00155513          	srli	a0,a0,0x1
    4b68:	801007b7          	lui	a5,0x80100
    4b6c:	00f50533          	add	a0,a0,a5
    4b70:	01f55513          	srli	a0,a0,0x1f
    4b74:	00008067          	ret

00004b78 <floor>:
    4b78:	fe010113          	addi	sp,sp,-32
    4b7c:	00112e23          	sw	ra,28(sp)
    4b80:	00812c23          	sw	s0,24(sp)
    4b84:	00912a23          	sw	s1,20(sp)
    4b88:	01212823          	sw	s2,16(sp)
    4b8c:	01312623          	sw	s3,12(sp)
    4b90:	01412423          	sw	s4,8(sp)
    4b94:	01512223          	sw	s5,4(sp)
    4b98:	01612023          	sw	s6,0(sp)
    4b9c:	00050413          	mv	s0,a0
    4ba0:	00058493          	mv	s1,a1
    4ba4:	00058993          	mv	s3,a1
    4ba8:	00050a13          	mv	s4,a0
    4bac:	4145d793          	srai	a5,a1,0x14
    4bb0:	7ff7f793          	andi	a5,a5,2047
    4bb4:	c0178913          	addi	s2,a5,-1023 # 800ffc01 <soln_cnt0+0x800ef125>
    4bb8:	01300713          	li	a4,19
    4bbc:	0f274a63          	blt	a4,s2,4cb0 <floor+0x138>
    4bc0:	08094663          	bltz	s2,4c4c <floor+0xd4>
    4bc4:	00100ab7          	lui	s5,0x100
    4bc8:	fffa8a93          	addi	s5,s5,-1 # fffff <soln_cnt0+0xef523>
    4bcc:	412adab3          	sra	s5,s5,s2
    4bd0:	00baf733          	and	a4,s5,a1
    4bd4:	00a76733          	or	a4,a4,a0
    4bd8:	00050793          	mv	a5,a0
    4bdc:	04070263          	beqz	a4,4c20 <floor+0xa8>
    4be0:	000117b7          	lui	a5,0x11
    4be4:	a707a603          	lw	a2,-1424(a5) # 10a70 <__clz_tab+0x3c0>
    4be8:	a747a683          	lw	a3,-1420(a5)
    4bec:	00040513          	mv	a0,s0
    4bf0:	00048593          	mv	a1,s1
    4bf4:	368000ef          	jal	ra,4f5c <__adddf3>
    4bf8:	00000613          	li	a2,0
    4bfc:	00000693          	li	a3,0
    4c00:	3a4010ef          	jal	ra,5fa4 <__gedf2>
    4c04:	00a05a63          	blez	a0,4c18 <floor+0xa0>
    4c08:	0804cc63          	bltz	s1,4ca0 <floor+0x128>
    4c0c:	fffaca93          	not	s5,s5
    4c10:	0159f9b3          	and	s3,s3,s5
    4c14:	00000a13          	li	s4,0
    4c18:	000a0793          	mv	a5,s4
    4c1c:	00098593          	mv	a1,s3
    4c20:	00078513          	mv	a0,a5
    4c24:	01c12083          	lw	ra,28(sp)
    4c28:	01812403          	lw	s0,24(sp)
    4c2c:	01412483          	lw	s1,20(sp)
    4c30:	01012903          	lw	s2,16(sp)
    4c34:	00c12983          	lw	s3,12(sp)
    4c38:	00812a03          	lw	s4,8(sp)
    4c3c:	00412a83          	lw	s5,4(sp)
    4c40:	00012b03          	lw	s6,0(sp)
    4c44:	02010113          	addi	sp,sp,32
    4c48:	00008067          	ret
    4c4c:	000117b7          	lui	a5,0x11
    4c50:	a707a603          	lw	a2,-1424(a5) # 10a70 <__clz_tab+0x3c0>
    4c54:	a747a683          	lw	a3,-1420(a5)
    4c58:	00040513          	mv	a0,s0
    4c5c:	00048593          	mv	a1,s1
    4c60:	2fc000ef          	jal	ra,4f5c <__adddf3>
    4c64:	00000613          	li	a2,0
    4c68:	00000693          	li	a3,0
    4c6c:	338010ef          	jal	ra,5fa4 <__gedf2>
    4c70:	faa054e3          	blez	a0,4c18 <floor+0xa0>
    4c74:	0004c863          	bltz	s1,4c84 <floor+0x10c>
    4c78:	00000a13          	li	s4,0
    4c7c:	00000993          	li	s3,0
    4c80:	f99ff06f          	j	4c18 <floor+0xa0>
    4c84:	00149493          	slli	s1,s1,0x1
    4c88:	0014d493          	srli	s1,s1,0x1
    4c8c:	0084ea33          	or	s4,s1,s0
    4c90:	f80a04e3          	beqz	s4,4c18 <floor+0xa0>
    4c94:	00000a13          	li	s4,0
    4c98:	bff009b7          	lui	s3,0xbff00
    4c9c:	f7dff06f          	j	4c18 <floor+0xa0>
    4ca0:	001009b7          	lui	s3,0x100
    4ca4:	4129d9b3          	sra	s3,s3,s2
    4ca8:	009989b3          	add	s3,s3,s1
    4cac:	f61ff06f          	j	4c0c <floor+0x94>
    4cb0:	03300713          	li	a4,51
    4cb4:	03275663          	bge	a4,s2,4ce0 <floor+0x168>
    4cb8:	40000713          	li	a4,1024
    4cbc:	00050793          	mv	a5,a0
    4cc0:	f6e910e3          	bne	s2,a4,4c20 <floor+0xa8>
    4cc4:	00050613          	mv	a2,a0
    4cc8:	00058693          	mv	a3,a1
    4ccc:	00040513          	mv	a0,s0
    4cd0:	00048593          	mv	a1,s1
    4cd4:	288000ef          	jal	ra,4f5c <__adddf3>
    4cd8:	00050793          	mv	a5,a0
    4cdc:	f45ff06f          	j	4c20 <floor+0xa8>
    4ce0:	bed78793          	addi	a5,a5,-1043
    4ce4:	fff00b13          	li	s6,-1
    4ce8:	00fb5b33          	srl	s6,s6,a5
    4cec:	00ab7733          	and	a4,s6,a0
    4cf0:	00050793          	mv	a5,a0
    4cf4:	f20706e3          	beqz	a4,4c20 <floor+0xa8>
    4cf8:	000117b7          	lui	a5,0x11
    4cfc:	a707a603          	lw	a2,-1424(a5) # 10a70 <__clz_tab+0x3c0>
    4d00:	a747a683          	lw	a3,-1420(a5)
    4d04:	00040513          	mv	a0,s0
    4d08:	00048593          	mv	a1,s1
    4d0c:	250000ef          	jal	ra,4f5c <__adddf3>
    4d10:	00000613          	li	a2,0
    4d14:	00000693          	li	a3,0
    4d18:	28c010ef          	jal	ra,5fa4 <__gedf2>
    4d1c:	eea05ee3          	blez	a0,4c18 <floor+0xa0>
    4d20:	0004c863          	bltz	s1,4d30 <floor+0x1b8>
    4d24:	fffb4b13          	not	s6,s6
    4d28:	016a7a33          	and	s4,s4,s6
    4d2c:	eedff06f          	j	4c18 <floor+0xa0>
    4d30:	01400793          	li	a5,20
    4d34:	02f90263          	beq	s2,a5,4d58 <floor+0x1e0>
    4d38:	03400793          	li	a5,52
    4d3c:	412787b3          	sub	a5,a5,s2
    4d40:	00100a13          	li	s4,1
    4d44:	00fa1a33          	sll	s4,s4,a5
    4d48:	008a0a33          	add	s4,s4,s0
    4d4c:	fc8a7ce3          	bgeu	s4,s0,4d24 <floor+0x1ac>
    4d50:	00148993          	addi	s3,s1,1
    4d54:	fd1ff06f          	j	4d24 <floor+0x1ac>
    4d58:	00148993          	addi	s3,s1,1
    4d5c:	fc9ff06f          	j	4d24 <floor+0x1ac>

00004d60 <nan>:
    4d60:	000117b7          	lui	a5,0x11
    4d64:	a787a503          	lw	a0,-1416(a5) # 10a78 <__clz_tab+0x3c8>
    4d68:	a7c7a583          	lw	a1,-1412(a5)
    4d6c:	00008067          	ret

00004d70 <scalbn>:
    4d70:	ff010113          	addi	sp,sp,-16
    4d74:	00112623          	sw	ra,12(sp)
    4d78:	00812423          	sw	s0,8(sp)
    4d7c:	00060413          	mv	s0,a2
    4d80:	4145d793          	srai	a5,a1,0x14
    4d84:	7ff7f793          	andi	a5,a5,2047
    4d88:	06079c63          	bnez	a5,4e00 <scalbn+0x90>
    4d8c:	00159793          	slli	a5,a1,0x1
    4d90:	0017d793          	srli	a5,a5,0x1
    4d94:	00a7e7b3          	or	a5,a5,a0
    4d98:	10078e63          	beqz	a5,4eb4 <scalbn+0x144>
    4d9c:	000117b7          	lui	a5,0x11
    4da0:	a807a603          	lw	a2,-1408(a5) # 10a80 <__clz_tab+0x3d0>
    4da4:	a847a683          	lw	a3,-1404(a5)
    4da8:	00050713          	mv	a4,a0
    4dac:	00058793          	mv	a5,a1
    4db0:	00070513          	mv	a0,a4
    4db4:	00078593          	mv	a1,a5
    4db8:	3b4010ef          	jal	ra,616c <__muldf3>
    4dbc:	00050713          	mv	a4,a0
    4dc0:	00058793          	mv	a5,a1
    4dc4:	ffff46b7          	lui	a3,0xffff4
    4dc8:	cb068693          	addi	a3,a3,-848 # ffff3cb0 <soln_cnt0+0xfffe31d4>
    4dcc:	00d44c63          	blt	s0,a3,4de4 <scalbn+0x74>
    4dd0:	00058713          	mv	a4,a1
    4dd4:	4145d793          	srai	a5,a1,0x14
    4dd8:	7ff7f793          	andi	a5,a5,2047
    4ddc:	fca78793          	addi	a5,a5,-54
    4de0:	02c0006f          	j	4e0c <scalbn+0x9c>
    4de4:	000116b7          	lui	a3,0x11
    4de8:	a886a603          	lw	a2,-1400(a3) # 10a88 <__clz_tab+0x3d8>
    4dec:	a8c6a683          	lw	a3,-1396(a3)
    4df0:	00070513          	mv	a0,a4
    4df4:	00078593          	mv	a1,a5
    4df8:	374010ef          	jal	ra,616c <__muldf3>
    4dfc:	0b80006f          	j	4eb4 <scalbn+0x144>
    4e00:	00058713          	mv	a4,a1
    4e04:	7ff00693          	li	a3,2047
    4e08:	06d78063          	beq	a5,a3,4e68 <scalbn+0xf8>
    4e0c:	00f407b3          	add	a5,s0,a5
    4e10:	7fe00693          	li	a3,2046
    4e14:	06f6c663          	blt	a3,a5,4e80 <scalbn+0x110>
    4e18:	0af04e63          	bgtz	a5,4ed4 <scalbn+0x164>
    4e1c:	fcb00693          	li	a3,-53
    4e20:	10d7d263          	bge	a5,a3,4f24 <scalbn+0x1b4>
    4e24:	0000c7b7          	lui	a5,0xc
    4e28:	35078793          	addi	a5,a5,848 # c350 <__trunctfdf2+0x1f4>
    4e2c:	0c87d063          	bge	a5,s0,4eec <scalbn+0x17c>
    4e30:	000117b7          	lui	a5,0x11
    4e34:	a707a703          	lw	a4,-1424(a5) # 10a70 <__clz_tab+0x3c0>
    4e38:	a747a783          	lw	a5,-1420(a5)
    4e3c:	0005d863          	bgez	a1,4e4c <scalbn+0xdc>
    4e40:	000117b7          	lui	a5,0x11
    4e44:	a907a703          	lw	a4,-1392(a5) # 10a90 <__clz_tab+0x3e0>
    4e48:	a947a783          	lw	a5,-1388(a5)
    4e4c:	000116b7          	lui	a3,0x11
    4e50:	a706a603          	lw	a2,-1424(a3) # 10a70 <__clz_tab+0x3c0>
    4e54:	a746a683          	lw	a3,-1420(a3)
    4e58:	00070513          	mv	a0,a4
    4e5c:	00078593          	mv	a1,a5
    4e60:	30c010ef          	jal	ra,616c <__muldf3>
    4e64:	0500006f          	j	4eb4 <scalbn+0x144>
    4e68:	00050613          	mv	a2,a0
    4e6c:	00058693          	mv	a3,a1
    4e70:	00060513          	mv	a0,a2
    4e74:	00068593          	mv	a1,a3
    4e78:	0e4000ef          	jal	ra,4f5c <__adddf3>
    4e7c:	0380006f          	j	4eb4 <scalbn+0x144>
    4e80:	000117b7          	lui	a5,0x11
    4e84:	a707a703          	lw	a4,-1424(a5) # 10a70 <__clz_tab+0x3c0>
    4e88:	a747a783          	lw	a5,-1420(a5)
    4e8c:	0005d863          	bgez	a1,4e9c <scalbn+0x12c>
    4e90:	000117b7          	lui	a5,0x11
    4e94:	a907a703          	lw	a4,-1392(a5) # 10a90 <__clz_tab+0x3e0>
    4e98:	a947a783          	lw	a5,-1388(a5)
    4e9c:	000116b7          	lui	a3,0x11
    4ea0:	a706a603          	lw	a2,-1424(a3) # 10a70 <__clz_tab+0x3c0>
    4ea4:	a746a683          	lw	a3,-1420(a3)
    4ea8:	00070513          	mv	a0,a4
    4eac:	00078593          	mv	a1,a5
    4eb0:	2bc010ef          	jal	ra,616c <__muldf3>
    4eb4:	00050713          	mv	a4,a0
    4eb8:	00058793          	mv	a5,a1
    4ebc:	00070513          	mv	a0,a4
    4ec0:	00078593          	mv	a1,a5
    4ec4:	00c12083          	lw	ra,12(sp)
    4ec8:	00812403          	lw	s0,8(sp)
    4ecc:	01010113          	addi	sp,sp,16
    4ed0:	00008067          	ret
    4ed4:	801006b7          	lui	a3,0x80100
    4ed8:	fff68693          	addi	a3,a3,-1 # 800fffff <soln_cnt0+0x800ef523>
    4edc:	00d77733          	and	a4,a4,a3
    4ee0:	01479793          	slli	a5,a5,0x14
    4ee4:	00f765b3          	or	a1,a4,a5
    4ee8:	fcdff06f          	j	4eb4 <scalbn+0x144>
    4eec:	000117b7          	lui	a5,0x11
    4ef0:	a887a703          	lw	a4,-1400(a5) # 10a88 <__clz_tab+0x3d8>
    4ef4:	a8c7a783          	lw	a5,-1396(a5)
    4ef8:	0005d863          	bgez	a1,4f08 <scalbn+0x198>
    4efc:	000117b7          	lui	a5,0x11
    4f00:	a987a703          	lw	a4,-1384(a5) # 10a98 <__clz_tab+0x3e8>
    4f04:	a9c7a783          	lw	a5,-1380(a5)
    4f08:	000116b7          	lui	a3,0x11
    4f0c:	a886a603          	lw	a2,-1400(a3) # 10a88 <__clz_tab+0x3d8>
    4f10:	a8c6a683          	lw	a3,-1396(a3)
    4f14:	00070513          	mv	a0,a4
    4f18:	00078593          	mv	a1,a5
    4f1c:	250010ef          	jal	ra,616c <__muldf3>
    4f20:	f95ff06f          	j	4eb4 <scalbn+0x144>
    4f24:	03678793          	addi	a5,a5,54
    4f28:	01479793          	slli	a5,a5,0x14
    4f2c:	801006b7          	lui	a3,0x80100
    4f30:	fff68693          	addi	a3,a3,-1 # 800fffff <soln_cnt0+0x800ef523>
    4f34:	00d77733          	and	a4,a4,a3
    4f38:	00050893          	mv	a7,a0
    4f3c:	00e7e833          	or	a6,a5,a4
    4f40:	000117b7          	lui	a5,0x11
    4f44:	aa07a603          	lw	a2,-1376(a5) # 10aa0 <__clz_tab+0x3f0>
    4f48:	aa47a683          	lw	a3,-1372(a5)
    4f4c:	00088513          	mv	a0,a7
    4f50:	00080593          	mv	a1,a6
    4f54:	218010ef          	jal	ra,616c <__muldf3>
    4f58:	f5dff06f          	j	4eb4 <scalbn+0x144>

00004f5c <__adddf3>:
    4f5c:	00100837          	lui	a6,0x100
    4f60:	fff80813          	addi	a6,a6,-1 # fffff <soln_cnt0+0xef523>
    4f64:	fe010113          	addi	sp,sp,-32
    4f68:	00b878b3          	and	a7,a6,a1
    4f6c:	0145d713          	srli	a4,a1,0x14
    4f70:	01d55793          	srli	a5,a0,0x1d
    4f74:	00d87833          	and	a6,a6,a3
    4f78:	00812c23          	sw	s0,24(sp)
    4f7c:	7ff77413          	andi	s0,a4,2047
    4f80:	00389713          	slli	a4,a7,0x3
    4f84:	0146d893          	srli	a7,a3,0x14
    4f88:	00381813          	slli	a6,a6,0x3
    4f8c:	00912a23          	sw	s1,20(sp)
    4f90:	00e7e7b3          	or	a5,a5,a4
    4f94:	7ff8f893          	andi	a7,a7,2047
    4f98:	01d65713          	srli	a4,a2,0x1d
    4f9c:	00112e23          	sw	ra,28(sp)
    4fa0:	01212823          	sw	s2,16(sp)
    4fa4:	01312623          	sw	s3,12(sp)
    4fa8:	01f5d493          	srli	s1,a1,0x1f
    4fac:	01f6d693          	srli	a3,a3,0x1f
    4fb0:	01076733          	or	a4,a4,a6
    4fb4:	00351513          	slli	a0,a0,0x3
    4fb8:	00361613          	slli	a2,a2,0x3
    4fbc:	41140833          	sub	a6,s0,a7
    4fc0:	2cd49863          	bne	s1,a3,5290 <__adddf3+0x334>
    4fc4:	13005063          	blez	a6,50e4 <__adddf3+0x188>
    4fc8:	04089063          	bnez	a7,5008 <__adddf3+0xac>
    4fcc:	00c766b3          	or	a3,a4,a2
    4fd0:	70068e63          	beqz	a3,56ec <__adddf3+0x790>
    4fd4:	fff80593          	addi	a1,a6,-1
    4fd8:	02059063          	bnez	a1,4ff8 <__adddf3+0x9c>
    4fdc:	00c50633          	add	a2,a0,a2
    4fe0:	00e78733          	add	a4,a5,a4
    4fe4:	00a637b3          	sltu	a5,a2,a0
    4fe8:	00f707b3          	add	a5,a4,a5
    4fec:	00060513          	mv	a0,a2
    4ff0:	00100413          	li	s0,1
    4ff4:	0700006f          	j	5064 <__adddf3+0x108>
    4ff8:	7ff00693          	li	a3,2047
    4ffc:	02d81063          	bne	a6,a3,501c <__adddf3+0xc0>
    5000:	7ff00413          	li	s0,2047
    5004:	2140006f          	j	5218 <__adddf3+0x2bc>
    5008:	7ff00693          	li	a3,2047
    500c:	20d40663          	beq	s0,a3,5218 <__adddf3+0x2bc>
    5010:	008006b7          	lui	a3,0x800
    5014:	00d76733          	or	a4,a4,a3
    5018:	00080593          	mv	a1,a6
    501c:	03800693          	li	a3,56
    5020:	0ab6cc63          	blt	a3,a1,50d8 <__adddf3+0x17c>
    5024:	01f00693          	li	a3,31
    5028:	06b6ce63          	blt	a3,a1,50a4 <__adddf3+0x148>
    502c:	02000813          	li	a6,32
    5030:	40b80833          	sub	a6,a6,a1
    5034:	010716b3          	sll	a3,a4,a6
    5038:	00b658b3          	srl	a7,a2,a1
    503c:	01061833          	sll	a6,a2,a6
    5040:	0116e6b3          	or	a3,a3,a7
    5044:	01003833          	snez	a6,a6
    5048:	0106e6b3          	or	a3,a3,a6
    504c:	00b755b3          	srl	a1,a4,a1
    5050:	00a686b3          	add	a3,a3,a0
    5054:	00f585b3          	add	a1,a1,a5
    5058:	00a6b7b3          	sltu	a5,a3,a0
    505c:	00f587b3          	add	a5,a1,a5
    5060:	00068513          	mv	a0,a3
    5064:	00800737          	lui	a4,0x800
    5068:	00e7f733          	and	a4,a5,a4
    506c:	1a070663          	beqz	a4,5218 <__adddf3+0x2bc>
    5070:	00140413          	addi	s0,s0,1
    5074:	7ff00713          	li	a4,2047
    5078:	5ce40a63          	beq	s0,a4,564c <__adddf3+0x6f0>
    507c:	ff800737          	lui	a4,0xff800
    5080:	fff70713          	addi	a4,a4,-1 # ff7fffff <soln_cnt0+0xff7ef523>
    5084:	00e7f7b3          	and	a5,a5,a4
    5088:	00155713          	srli	a4,a0,0x1
    508c:	00157513          	andi	a0,a0,1
    5090:	00a76733          	or	a4,a4,a0
    5094:	01f79513          	slli	a0,a5,0x1f
    5098:	00e56533          	or	a0,a0,a4
    509c:	0017d793          	srli	a5,a5,0x1
    50a0:	1780006f          	j	5218 <__adddf3+0x2bc>
    50a4:	fe058693          	addi	a3,a1,-32
    50a8:	02000893          	li	a7,32
    50ac:	00d756b3          	srl	a3,a4,a3
    50b0:	00000813          	li	a6,0
    50b4:	01158863          	beq	a1,a7,50c4 <__adddf3+0x168>
    50b8:	04000813          	li	a6,64
    50bc:	40b80833          	sub	a6,a6,a1
    50c0:	01071833          	sll	a6,a4,a6
    50c4:	00c86833          	or	a6,a6,a2
    50c8:	01003833          	snez	a6,a6
    50cc:	0106e6b3          	or	a3,a3,a6
    50d0:	00000593          	li	a1,0
    50d4:	f7dff06f          	j	5050 <__adddf3+0xf4>
    50d8:	00c766b3          	or	a3,a4,a2
    50dc:	00d036b3          	snez	a3,a3
    50e0:	ff1ff06f          	j	50d0 <__adddf3+0x174>
    50e4:	0e080263          	beqz	a6,51c8 <__adddf3+0x26c>
    50e8:	408885b3          	sub	a1,a7,s0
    50ec:	02041e63          	bnez	s0,5128 <__adddf3+0x1cc>
    50f0:	00a7e6b3          	or	a3,a5,a0
    50f4:	52068c63          	beqz	a3,562c <__adddf3+0x6d0>
    50f8:	fff58693          	addi	a3,a1,-1
    50fc:	00069c63          	bnez	a3,5114 <__adddf3+0x1b8>
    5100:	00c50533          	add	a0,a0,a2
    5104:	00e78733          	add	a4,a5,a4
    5108:	00c53633          	sltu	a2,a0,a2
    510c:	00c707b3          	add	a5,a4,a2
    5110:	ee1ff06f          	j	4ff0 <__adddf3+0x94>
    5114:	7ff00813          	li	a6,2047
    5118:	03059263          	bne	a1,a6,513c <__adddf3+0x1e0>
    511c:	00070793          	mv	a5,a4
    5120:	00060513          	mv	a0,a2
    5124:	eddff06f          	j	5000 <__adddf3+0xa4>
    5128:	7ff00693          	li	a3,2047
    512c:	fed888e3          	beq	a7,a3,511c <__adddf3+0x1c0>
    5130:	008006b7          	lui	a3,0x800
    5134:	00d7e7b3          	or	a5,a5,a3
    5138:	00058693          	mv	a3,a1
    513c:	03800593          	li	a1,56
    5140:	06d5ce63          	blt	a1,a3,51bc <__adddf3+0x260>
    5144:	01f00593          	li	a1,31
    5148:	04d5c063          	blt	a1,a3,5188 <__adddf3+0x22c>
    514c:	02000813          	li	a6,32
    5150:	40d80833          	sub	a6,a6,a3
    5154:	010795b3          	sll	a1,a5,a6
    5158:	00d55333          	srl	t1,a0,a3
    515c:	01051833          	sll	a6,a0,a6
    5160:	0065e5b3          	or	a1,a1,t1
    5164:	01003833          	snez	a6,a6
    5168:	0105e5b3          	or	a1,a1,a6
    516c:	00d7d6b3          	srl	a3,a5,a3
    5170:	00c58533          	add	a0,a1,a2
    5174:	00e686b3          	add	a3,a3,a4
    5178:	00c53633          	sltu	a2,a0,a2
    517c:	00c687b3          	add	a5,a3,a2
    5180:	00088413          	mv	s0,a7
    5184:	ee1ff06f          	j	5064 <__adddf3+0x108>
    5188:	fe068593          	addi	a1,a3,-32 # 7fffe0 <soln_cnt0+0x7ef504>
    518c:	02000313          	li	t1,32
    5190:	00b7d5b3          	srl	a1,a5,a1
    5194:	00000813          	li	a6,0
    5198:	00668863          	beq	a3,t1,51a8 <__adddf3+0x24c>
    519c:	04000813          	li	a6,64
    51a0:	40d80833          	sub	a6,a6,a3
    51a4:	01079833          	sll	a6,a5,a6
    51a8:	00a86833          	or	a6,a6,a0
    51ac:	01003833          	snez	a6,a6
    51b0:	0105e5b3          	or	a1,a1,a6
    51b4:	00000693          	li	a3,0
    51b8:	fb9ff06f          	j	5170 <__adddf3+0x214>
    51bc:	00a7e5b3          	or	a1,a5,a0
    51c0:	00b035b3          	snez	a1,a1
    51c4:	ff1ff06f          	j	51b4 <__adddf3+0x258>
    51c8:	00140693          	addi	a3,s0,1
    51cc:	7fe6f593          	andi	a1,a3,2046
    51d0:	08059863          	bnez	a1,5260 <__adddf3+0x304>
    51d4:	00a7e6b3          	or	a3,a5,a0
    51d8:	06041463          	bnez	s0,5240 <__adddf3+0x2e4>
    51dc:	46068063          	beqz	a3,563c <__adddf3+0x6e0>
    51e0:	00c766b3          	or	a3,a4,a2
    51e4:	02068a63          	beqz	a3,5218 <__adddf3+0x2bc>
    51e8:	00c50633          	add	a2,a0,a2
    51ec:	00e78733          	add	a4,a5,a4
    51f0:	00a637b3          	sltu	a5,a2,a0
    51f4:	00f707b3          	add	a5,a4,a5
    51f8:	00800737          	lui	a4,0x800
    51fc:	00e7f733          	and	a4,a5,a4
    5200:	00060513          	mv	a0,a2
    5204:	00070a63          	beqz	a4,5218 <__adddf3+0x2bc>
    5208:	ff800737          	lui	a4,0xff800
    520c:	fff70713          	addi	a4,a4,-1 # ff7fffff <soln_cnt0+0xff7ef523>
    5210:	00e7f7b3          	and	a5,a5,a4
    5214:	00100413          	li	s0,1
    5218:	00757713          	andi	a4,a0,7
    521c:	42070c63          	beqz	a4,5654 <__adddf3+0x6f8>
    5220:	00f57713          	andi	a4,a0,15
    5224:	00400693          	li	a3,4
    5228:	42d70663          	beq	a4,a3,5654 <__adddf3+0x6f8>
    522c:	00450713          	addi	a4,a0,4
    5230:	00a73533          	sltu	a0,a4,a0
    5234:	00a787b3          	add	a5,a5,a0
    5238:	00070513          	mv	a0,a4
    523c:	4180006f          	j	5654 <__adddf3+0x6f8>
    5240:	ec068ee3          	beqz	a3,511c <__adddf3+0x1c0>
    5244:	00c76733          	or	a4,a4,a2
    5248:	da070ce3          	beqz	a4,5000 <__adddf3+0xa4>
    524c:	00000493          	li	s1,0
    5250:	004007b7          	lui	a5,0x400
    5254:	00000513          	li	a0,0
    5258:	7ff00413          	li	s0,2047
    525c:	3f80006f          	j	5654 <__adddf3+0x6f8>
    5260:	7ff00593          	li	a1,2047
    5264:	3eb68263          	beq	a3,a1,5648 <__adddf3+0x6ec>
    5268:	00c50633          	add	a2,a0,a2
    526c:	00a63533          	sltu	a0,a2,a0
    5270:	00e78733          	add	a4,a5,a4
    5274:	00a70733          	add	a4,a4,a0
    5278:	01f71513          	slli	a0,a4,0x1f
    527c:	00165613          	srli	a2,a2,0x1
    5280:	00c56533          	or	a0,a0,a2
    5284:	00175793          	srli	a5,a4,0x1
    5288:	00068413          	mv	s0,a3
    528c:	f8dff06f          	j	5218 <__adddf3+0x2bc>
    5290:	0f005c63          	blez	a6,5388 <__adddf3+0x42c>
    5294:	08089e63          	bnez	a7,5330 <__adddf3+0x3d4>
    5298:	00c766b3          	or	a3,a4,a2
    529c:	44068863          	beqz	a3,56ec <__adddf3+0x790>
    52a0:	fff80593          	addi	a1,a6,-1
    52a4:	02059063          	bnez	a1,52c4 <__adddf3+0x368>
    52a8:	40c50633          	sub	a2,a0,a2
    52ac:	40e78733          	sub	a4,a5,a4
    52b0:	00c537b3          	sltu	a5,a0,a2
    52b4:	40f707b3          	sub	a5,a4,a5
    52b8:	00060513          	mv	a0,a2
    52bc:	00100413          	li	s0,1
    52c0:	0540006f          	j	5314 <__adddf3+0x3b8>
    52c4:	7ff00693          	li	a3,2047
    52c8:	d2d80ce3          	beq	a6,a3,5000 <__adddf3+0xa4>
    52cc:	03800693          	li	a3,56
    52d0:	0ab6c663          	blt	a3,a1,537c <__adddf3+0x420>
    52d4:	01f00693          	li	a3,31
    52d8:	06b6c863          	blt	a3,a1,5348 <__adddf3+0x3ec>
    52dc:	02000813          	li	a6,32
    52e0:	40b80833          	sub	a6,a6,a1
    52e4:	010716b3          	sll	a3,a4,a6
    52e8:	00b658b3          	srl	a7,a2,a1
    52ec:	01061833          	sll	a6,a2,a6
    52f0:	0116e6b3          	or	a3,a3,a7
    52f4:	01003833          	snez	a6,a6
    52f8:	0106e6b3          	or	a3,a3,a6
    52fc:	00b755b3          	srl	a1,a4,a1
    5300:	40d506b3          	sub	a3,a0,a3
    5304:	40b785b3          	sub	a1,a5,a1
    5308:	00d537b3          	sltu	a5,a0,a3
    530c:	40f587b3          	sub	a5,a1,a5
    5310:	00068513          	mv	a0,a3
    5314:	00800937          	lui	s2,0x800
    5318:	0127f733          	and	a4,a5,s2
    531c:	ee070ee3          	beqz	a4,5218 <__adddf3+0x2bc>
    5320:	fff90913          	addi	s2,s2,-1 # 7fffff <soln_cnt0+0x7ef523>
    5324:	0127f933          	and	s2,a5,s2
    5328:	00050993          	mv	s3,a0
    532c:	2140006f          	j	5540 <__adddf3+0x5e4>
    5330:	7ff00693          	li	a3,2047
    5334:	eed402e3          	beq	s0,a3,5218 <__adddf3+0x2bc>
    5338:	008006b7          	lui	a3,0x800
    533c:	00d76733          	or	a4,a4,a3
    5340:	00080593          	mv	a1,a6
    5344:	f89ff06f          	j	52cc <__adddf3+0x370>
    5348:	fe058693          	addi	a3,a1,-32
    534c:	02000893          	li	a7,32
    5350:	00d756b3          	srl	a3,a4,a3
    5354:	00000813          	li	a6,0
    5358:	01158863          	beq	a1,a7,5368 <__adddf3+0x40c>
    535c:	04000813          	li	a6,64
    5360:	40b80833          	sub	a6,a6,a1
    5364:	01071833          	sll	a6,a4,a6
    5368:	00c86833          	or	a6,a6,a2
    536c:	01003833          	snez	a6,a6
    5370:	0106e6b3          	or	a3,a3,a6
    5374:	00000593          	li	a1,0
    5378:	f89ff06f          	j	5300 <__adddf3+0x3a4>
    537c:	00c766b3          	or	a3,a4,a2
    5380:	00d036b3          	snez	a3,a3
    5384:	ff1ff06f          	j	5374 <__adddf3+0x418>
    5388:	0e080863          	beqz	a6,5478 <__adddf3+0x51c>
    538c:	40888833          	sub	a6,a7,s0
    5390:	04041263          	bnez	s0,53d4 <__adddf3+0x478>
    5394:	00a7e5b3          	or	a1,a5,a0
    5398:	34058e63          	beqz	a1,56f4 <__adddf3+0x798>
    539c:	fff80593          	addi	a1,a6,-1
    53a0:	00059e63          	bnez	a1,53bc <__adddf3+0x460>
    53a4:	40a60533          	sub	a0,a2,a0
    53a8:	40f70733          	sub	a4,a4,a5
    53ac:	00a63633          	sltu	a2,a2,a0
    53b0:	40c707b3          	sub	a5,a4,a2
    53b4:	00068493          	mv	s1,a3
    53b8:	f05ff06f          	j	52bc <__adddf3+0x360>
    53bc:	7ff00313          	li	t1,2047
    53c0:	02681463          	bne	a6,t1,53e8 <__adddf3+0x48c>
    53c4:	00070793          	mv	a5,a4
    53c8:	00060513          	mv	a0,a2
    53cc:	7ff00413          	li	s0,2047
    53d0:	0d00006f          	j	54a0 <__adddf3+0x544>
    53d4:	7ff00593          	li	a1,2047
    53d8:	feb886e3          	beq	a7,a1,53c4 <__adddf3+0x468>
    53dc:	008005b7          	lui	a1,0x800
    53e0:	00b7e7b3          	or	a5,a5,a1
    53e4:	00080593          	mv	a1,a6
    53e8:	03800813          	li	a6,56
    53ec:	08b84063          	blt	a6,a1,546c <__adddf3+0x510>
    53f0:	01f00813          	li	a6,31
    53f4:	04b84263          	blt	a6,a1,5438 <__adddf3+0x4dc>
    53f8:	02000313          	li	t1,32
    53fc:	40b30333          	sub	t1,t1,a1
    5400:	00b55e33          	srl	t3,a0,a1
    5404:	00679833          	sll	a6,a5,t1
    5408:	00651333          	sll	t1,a0,t1
    540c:	01c86833          	or	a6,a6,t3
    5410:	00603333          	snez	t1,t1
    5414:	00686533          	or	a0,a6,t1
    5418:	00b7d5b3          	srl	a1,a5,a1
    541c:	40a60533          	sub	a0,a2,a0
    5420:	40b705b3          	sub	a1,a4,a1
    5424:	00a63633          	sltu	a2,a2,a0
    5428:	40c587b3          	sub	a5,a1,a2
    542c:	00088413          	mv	s0,a7
    5430:	00068493          	mv	s1,a3
    5434:	ee1ff06f          	j	5314 <__adddf3+0x3b8>
    5438:	fe058813          	addi	a6,a1,-32 # 7fffe0 <soln_cnt0+0x7ef504>
    543c:	02000e13          	li	t3,32
    5440:	0107d833          	srl	a6,a5,a6
    5444:	00000313          	li	t1,0
    5448:	01c58863          	beq	a1,t3,5458 <__adddf3+0x4fc>
    544c:	04000313          	li	t1,64
    5450:	40b30333          	sub	t1,t1,a1
    5454:	00679333          	sll	t1,a5,t1
    5458:	00a36333          	or	t1,t1,a0
    545c:	00603333          	snez	t1,t1
    5460:	00686533          	or	a0,a6,t1
    5464:	00000593          	li	a1,0
    5468:	fb5ff06f          	j	541c <__adddf3+0x4c0>
    546c:	00a7e533          	or	a0,a5,a0
    5470:	00a03533          	snez	a0,a0
    5474:	ff1ff06f          	j	5464 <__adddf3+0x508>
    5478:	00140593          	addi	a1,s0,1
    547c:	7fe5f593          	andi	a1,a1,2046
    5480:	08059863          	bnez	a1,5510 <__adddf3+0x5b4>
    5484:	00a7e833          	or	a6,a5,a0
    5488:	00c765b3          	or	a1,a4,a2
    548c:	06041263          	bnez	s0,54f0 <__adddf3+0x594>
    5490:	00081c63          	bnez	a6,54a8 <__adddf3+0x54c>
    5494:	26058863          	beqz	a1,5704 <__adddf3+0x7a8>
    5498:	00070793          	mv	a5,a4
    549c:	00060513          	mv	a0,a2
    54a0:	00068493          	mv	s1,a3
    54a4:	d75ff06f          	j	5218 <__adddf3+0x2bc>
    54a8:	d60588e3          	beqz	a1,5218 <__adddf3+0x2bc>
    54ac:	40c50833          	sub	a6,a0,a2
    54b0:	010538b3          	sltu	a7,a0,a6
    54b4:	40e785b3          	sub	a1,a5,a4
    54b8:	411585b3          	sub	a1,a1,a7
    54bc:	008008b7          	lui	a7,0x800
    54c0:	0115f8b3          	and	a7,a1,a7
    54c4:	00088c63          	beqz	a7,54dc <__adddf3+0x580>
    54c8:	40a60533          	sub	a0,a2,a0
    54cc:	40f70733          	sub	a4,a4,a5
    54d0:	00a63633          	sltu	a2,a2,a0
    54d4:	40c707b3          	sub	a5,a4,a2
    54d8:	fc9ff06f          	j	54a0 <__adddf3+0x544>
    54dc:	00b86533          	or	a0,a6,a1
    54e0:	22050a63          	beqz	a0,5714 <__adddf3+0x7b8>
    54e4:	00058793          	mv	a5,a1
    54e8:	00080513          	mv	a0,a6
    54ec:	d2dff06f          	j	5218 <__adddf3+0x2bc>
    54f0:	00081c63          	bnez	a6,5508 <__adddf3+0x5ac>
    54f4:	22058463          	beqz	a1,571c <__adddf3+0x7c0>
    54f8:	00070793          	mv	a5,a4
    54fc:	00060513          	mv	a0,a2
    5500:	00068493          	mv	s1,a3
    5504:	afdff06f          	j	5000 <__adddf3+0xa4>
    5508:	ae058ce3          	beqz	a1,5000 <__adddf3+0xa4>
    550c:	d41ff06f          	j	524c <__adddf3+0x2f0>
    5510:	40c509b3          	sub	s3,a0,a2
    5514:	013535b3          	sltu	a1,a0,s3
    5518:	40e78933          	sub	s2,a5,a4
    551c:	40b90933          	sub	s2,s2,a1
    5520:	008005b7          	lui	a1,0x800
    5524:	00b975b3          	and	a1,s2,a1
    5528:	08058463          	beqz	a1,55b0 <__adddf3+0x654>
    552c:	40a609b3          	sub	s3,a2,a0
    5530:	40f70933          	sub	s2,a4,a5
    5534:	01363633          	sltu	a2,a2,s3
    5538:	40c90933          	sub	s2,s2,a2
    553c:	00068493          	mv	s1,a3
    5540:	08090263          	beqz	s2,55c4 <__adddf3+0x668>
    5544:	00090513          	mv	a0,s2
    5548:	038070ef          	jal	ra,c580 <__clzsi2>
    554c:	ff850713          	addi	a4,a0,-8
    5550:	01f00793          	li	a5,31
    5554:	08e7c063          	blt	a5,a4,55d4 <__adddf3+0x678>
    5558:	02000793          	li	a5,32
    555c:	40e787b3          	sub	a5,a5,a4
    5560:	00e91933          	sll	s2,s2,a4
    5564:	00f9d7b3          	srl	a5,s3,a5
    5568:	0127e7b3          	or	a5,a5,s2
    556c:	00e99533          	sll	a0,s3,a4
    5570:	0a874463          	blt	a4,s0,5618 <__adddf3+0x6bc>
    5574:	40870733          	sub	a4,a4,s0
    5578:	00170613          	addi	a2,a4,1
    557c:	01f00693          	li	a3,31
    5580:	06c6c263          	blt	a3,a2,55e4 <__adddf3+0x688>
    5584:	02000713          	li	a4,32
    5588:	40c70733          	sub	a4,a4,a2
    558c:	00e796b3          	sll	a3,a5,a4
    5590:	00c555b3          	srl	a1,a0,a2
    5594:	00e51733          	sll	a4,a0,a4
    5598:	00b6e6b3          	or	a3,a3,a1
    559c:	00e03733          	snez	a4,a4
    55a0:	00e6e533          	or	a0,a3,a4
    55a4:	00c7d7b3          	srl	a5,a5,a2
    55a8:	00000413          	li	s0,0
    55ac:	c6dff06f          	j	5218 <__adddf3+0x2bc>
    55b0:	0129e533          	or	a0,s3,s2
    55b4:	f80516e3          	bnez	a0,5540 <__adddf3+0x5e4>
    55b8:	00000793          	li	a5,0
    55bc:	00000413          	li	s0,0
    55c0:	14c0006f          	j	570c <__adddf3+0x7b0>
    55c4:	00098513          	mv	a0,s3
    55c8:	7b9060ef          	jal	ra,c580 <__clzsi2>
    55cc:	02050513          	addi	a0,a0,32
    55d0:	f7dff06f          	j	554c <__adddf3+0x5f0>
    55d4:	fd850793          	addi	a5,a0,-40
    55d8:	00f997b3          	sll	a5,s3,a5
    55dc:	00000513          	li	a0,0
    55e0:	f91ff06f          	j	5570 <__adddf3+0x614>
    55e4:	fe170713          	addi	a4,a4,-31
    55e8:	02000593          	li	a1,32
    55ec:	00e7d733          	srl	a4,a5,a4
    55f0:	00000693          	li	a3,0
    55f4:	00b60863          	beq	a2,a1,5604 <__adddf3+0x6a8>
    55f8:	04000693          	li	a3,64
    55fc:	40c686b3          	sub	a3,a3,a2
    5600:	00d796b3          	sll	a3,a5,a3
    5604:	00d566b3          	or	a3,a0,a3
    5608:	00d036b3          	snez	a3,a3
    560c:	00d76533          	or	a0,a4,a3
    5610:	00000793          	li	a5,0
    5614:	f95ff06f          	j	55a8 <__adddf3+0x64c>
    5618:	40e40433          	sub	s0,s0,a4
    561c:	ff800737          	lui	a4,0xff800
    5620:	fff70713          	addi	a4,a4,-1 # ff7fffff <soln_cnt0+0xff7ef523>
    5624:	00e7f7b3          	and	a5,a5,a4
    5628:	bf1ff06f          	j	5218 <__adddf3+0x2bc>
    562c:	00070793          	mv	a5,a4
    5630:	00060513          	mv	a0,a2
    5634:	00058413          	mv	s0,a1
    5638:	be1ff06f          	j	5218 <__adddf3+0x2bc>
    563c:	00070793          	mv	a5,a4
    5640:	00060513          	mv	a0,a2
    5644:	bd5ff06f          	j	5218 <__adddf3+0x2bc>
    5648:	7ff00413          	li	s0,2047
    564c:	00000793          	li	a5,0
    5650:	00000513          	li	a0,0
    5654:	00800737          	lui	a4,0x800
    5658:	00e7f733          	and	a4,a5,a4
    565c:	00070e63          	beqz	a4,5678 <__adddf3+0x71c>
    5660:	00140413          	addi	s0,s0,1
    5664:	7ff00713          	li	a4,2047
    5668:	0ce40263          	beq	s0,a4,572c <__adddf3+0x7d0>
    566c:	ff800737          	lui	a4,0xff800
    5670:	fff70713          	addi	a4,a4,-1 # ff7fffff <soln_cnt0+0xff7ef523>
    5674:	00e7f7b3          	and	a5,a5,a4
    5678:	01d79693          	slli	a3,a5,0x1d
    567c:	00355513          	srli	a0,a0,0x3
    5680:	7ff00713          	li	a4,2047
    5684:	00a6e6b3          	or	a3,a3,a0
    5688:	0037d793          	srli	a5,a5,0x3
    568c:	00e41e63          	bne	s0,a4,56a8 <__adddf3+0x74c>
    5690:	00f6e6b3          	or	a3,a3,a5
    5694:	00000793          	li	a5,0
    5698:	00068863          	beqz	a3,56a8 <__adddf3+0x74c>
    569c:	000807b7          	lui	a5,0x80
    56a0:	00000693          	li	a3,0
    56a4:	00000493          	li	s1,0
    56a8:	01441713          	slli	a4,s0,0x14
    56ac:	7ff00637          	lui	a2,0x7ff00
    56b0:	00c79793          	slli	a5,a5,0xc
